
TSW.elf:     file format elf32-avr

Sections:
Idx Name          Size      VMA       LMA       File off  Algn
  0 .text         00002bb0  00000000  00000000  00000094  2**1
                  CONTENTS, ALLOC, LOAD, READONLY, CODE
  1 .data         000000cc  00800060  00002bb0  00002c44  2**0
                  CONTENTS, ALLOC, LOAD, DATA
  2 .bss          00000005  0080012c  0080012c  00002d10  2**0
                  ALLOC
  3 .stab         00002388  00000000  00000000  00002d10  2**2
                  CONTENTS, READONLY, DEBUGGING
  4 .stabstr      00000acf  00000000  00000000  00005098  2**0
                  CONTENTS, READONLY, DEBUGGING

Disassembly of section .text:

00000000 <__vectors>:
       0:	0c 94 2a 00 	jmp	0x54	; 0x54 <__ctors_end>
       4:	0c 94 47 00 	jmp	0x8e	; 0x8e <__bad_interrupt>
       8:	0c 94 47 00 	jmp	0x8e	; 0x8e <__bad_interrupt>
       c:	0c 94 47 00 	jmp	0x8e	; 0x8e <__bad_interrupt>
      10:	0c 94 47 00 	jmp	0x8e	; 0x8e <__bad_interrupt>
      14:	0c 94 47 00 	jmp	0x8e	; 0x8e <__bad_interrupt>
      18:	0c 94 47 00 	jmp	0x8e	; 0x8e <__bad_interrupt>
      1c:	0c 94 47 00 	jmp	0x8e	; 0x8e <__bad_interrupt>
      20:	0c 94 47 00 	jmp	0x8e	; 0x8e <__bad_interrupt>
      24:	0c 94 47 00 	jmp	0x8e	; 0x8e <__bad_interrupt>
      28:	0c 94 47 00 	jmp	0x8e	; 0x8e <__bad_interrupt>
      2c:	0c 94 47 00 	jmp	0x8e	; 0x8e <__bad_interrupt>
      30:	0c 94 47 00 	jmp	0x8e	; 0x8e <__bad_interrupt>
      34:	0c 94 47 00 	jmp	0x8e	; 0x8e <__bad_interrupt>
      38:	0c 94 47 00 	jmp	0x8e	; 0x8e <__bad_interrupt>
      3c:	0c 94 47 00 	jmp	0x8e	; 0x8e <__bad_interrupt>
      40:	0c 94 47 00 	jmp	0x8e	; 0x8e <__bad_interrupt>
      44:	0c 94 47 00 	jmp	0x8e	; 0x8e <__bad_interrupt>
      48:	0c 94 47 00 	jmp	0x8e	; 0x8e <__bad_interrupt>
      4c:	0c 94 47 00 	jmp	0x8e	; 0x8e <__bad_interrupt>
      50:	0c 94 47 00 	jmp	0x8e	; 0x8e <__bad_interrupt>

00000054 <__ctors_end>:
      54:	11 24       	eor	r1, r1
      56:	1f be       	out	0x3f, r1	; 63
      58:	cf e5       	ldi	r28, 0x5F	; 95
      5a:	d8 e0       	ldi	r29, 0x08	; 8
      5c:	de bf       	out	0x3e, r29	; 62
      5e:	cd bf       	out	0x3d, r28	; 61

00000060 <__do_copy_data>:
      60:	11 e0       	ldi	r17, 0x01	; 1
      62:	a0 e6       	ldi	r26, 0x60	; 96
      64:	b0 e0       	ldi	r27, 0x00	; 0
      66:	e0 eb       	ldi	r30, 0xB0	; 176
      68:	fb e2       	ldi	r31, 0x2B	; 43
      6a:	02 c0       	rjmp	.+4      	; 0x70 <.do_copy_data_start>

0000006c <.do_copy_data_loop>:
      6c:	05 90       	lpm	r0, Z+
      6e:	0d 92       	st	X+, r0

00000070 <.do_copy_data_start>:
      70:	ac 32       	cpi	r26, 0x2C	; 44
      72:	b1 07       	cpc	r27, r17
      74:	d9 f7       	brne	.-10     	; 0x6c <.do_copy_data_loop>

00000076 <__do_clear_bss>:
      76:	11 e0       	ldi	r17, 0x01	; 1
      78:	ac e2       	ldi	r26, 0x2C	; 44
      7a:	b1 e0       	ldi	r27, 0x01	; 1
      7c:	01 c0       	rjmp	.+2      	; 0x80 <.do_clear_bss_start>

0000007e <.do_clear_bss_loop>:
      7e:	1d 92       	st	X+, r1

00000080 <.do_clear_bss_start>:
      80:	a1 33       	cpi	r26, 0x31	; 49
      82:	b1 07       	cpc	r27, r17
      84:	e1 f7       	brne	.-8      	; 0x7e <.do_clear_bss_loop>
      86:	0e 94 43 03 	call	0x686	; 0x686 <main>
      8a:	0c 94 d6 15 	jmp	0x2bac	; 0x2bac <_exit>

0000008e <__bad_interrupt>:
      8e:	0c 94 00 00 	jmp	0	; 0x0 <__vectors>

00000092 <DIO_voidInit>:
static  u8 * const DIO_u8Ddrs[]={DIO_u8DDRA ,DIO_u8DDRB, DIO_u8DDRC , DIO_u8DDRD} ;
static  u8 *const DIO_u8Pins[]={DIO_u8PINA ,DIO_u8PINB, DIO_u8PINC , DIO_u8PIND} ;


extern void DIO_voidInit(void)
{
      92:	df 93       	push	r29
      94:	cf 93       	push	r28
      96:	cd b7       	in	r28, 0x3d	; 61
      98:	de b7       	in	r29, 0x3e	; 62

/*Comment!:initializing Ports Directions */
*DIO_u8Ddrs[DIO_u8PORT0]=DIO_u8PORTA_DIR;
      9a:	e0 91 68 00 	lds	r30, 0x0068
      9e:	f0 91 69 00 	lds	r31, 0x0069
      a2:	8f e6       	ldi	r24, 0x6F	; 111
      a4:	80 83       	st	Z, r24
*DIO_u8Ddrs[DIO_u8PORT1]=DIO_u8PORTB_DIR;
      a6:	e0 91 6a 00 	lds	r30, 0x006A
      aa:	f0 91 6b 00 	lds	r31, 0x006B
      ae:	8f ef       	ldi	r24, 0xFF	; 255
      b0:	80 83       	st	Z, r24
*DIO_u8Ddrs[DIO_u8PORT2]=DIO_u8PORTC_DIR;
      b2:	e0 91 6c 00 	lds	r30, 0x006C
      b6:	f0 91 6d 00 	lds	r31, 0x006D
      ba:	8f ef       	ldi	r24, 0xFF	; 255
      bc:	80 83       	st	Z, r24
*DIO_u8Ddrs[DIO_u8PORT3]=DIO_u8PORTD_DIR;
      be:	e0 91 6e 00 	lds	r30, 0x006E
      c2:	f0 91 6f 00 	lds	r31, 0x006F
      c6:	8f ef       	ldi	r24, 0xFF	; 255
      c8:	80 83       	st	Z, r24

/*Comment!:initializing Ports Value  */
*DIO_u8Ports[DIO_u8PORT0] =(DIO_u8PORTA_DIR & DIO_u8PORTA_VAL) | ((~DIO_u8PORTA_DIR)&*DIO_u8Ports[DIO_u8PORT0] );
      ca:	a0 91 60 00 	lds	r26, 0x0060
      ce:	b0 91 61 00 	lds	r27, 0x0061
      d2:	e0 91 60 00 	lds	r30, 0x0060
      d6:	f0 91 61 00 	lds	r31, 0x0061
      da:	80 81       	ld	r24, Z
      dc:	80 79       	andi	r24, 0x90	; 144
      de:	8c 93       	st	X, r24
*DIO_u8Ports[DIO_u8PORT1] =(DIO_u8PORTB_DIR & DIO_u8PORTB_VAL)| ((~DIO_u8PORTB_DIR)&*DIO_u8Ports[DIO_u8PORT1] );
      e0:	e0 91 62 00 	lds	r30, 0x0062
      e4:	f0 91 63 00 	lds	r31, 0x0063
      e8:	10 82       	st	Z, r1
*DIO_u8Ports[DIO_u8PORT2] =(DIO_u8PORTC_DIR & DIO_u8PORTC_VAL)| ((~DIO_u8PORTC_DIR)&*DIO_u8Ports[DIO_u8PORT2] );
      ea:	e0 91 64 00 	lds	r30, 0x0064
      ee:	f0 91 65 00 	lds	r31, 0x0065
      f2:	10 82       	st	Z, r1
*DIO_u8Ports[DIO_u8PORT3] =(DIO_u8PORTD_DIR & DIO_u8PORTD_VAL)| ((~DIO_u8PORTD_DIR)&*DIO_u8Ports[DIO_u8PORT3] );
      f4:	e0 91 66 00 	lds	r30, 0x0066
      f8:	f0 91 67 00 	lds	r31, 0x0067
      fc:	10 82       	st	Z, r1

}
      fe:	cf 91       	pop	r28
     100:	df 91       	pop	r29
     102:	08 95       	ret

00000104 <DIO_u8ReadPinVal>:


extern u8 DIO_u8ReadPinVal(u8 Copy_u8PinIdx,u8* Copy_u8PtrToval)
{
     104:	df 93       	push	r29
     106:	cf 93       	push	r28
     108:	00 d0       	rcall	.+0      	; 0x10a <DIO_u8ReadPinVal+0x6>
     10a:	00 d0       	rcall	.+0      	; 0x10c <DIO_u8ReadPinVal+0x8>
     10c:	00 d0       	rcall	.+0      	; 0x10e <DIO_u8ReadPinVal+0xa>
     10e:	cd b7       	in	r28, 0x3d	; 61
     110:	de b7       	in	r29, 0x3e	; 62
     112:	8c 83       	std	Y+4, r24	; 0x04
     114:	7e 83       	std	Y+6, r23	; 0x06
     116:	6d 83       	std	Y+5, r22	; 0x05

	 u8 Local_u8CheckPinState=ok ;
     118:	81 e0       	ldi	r24, 0x01	; 1
     11a:	8b 83       	std	Y+3, r24	; 0x03
	if(Copy_u8PinIdx<DIO_u8PINMAXIDX)
     11c:	8c 81       	ldd	r24, Y+4	; 0x04
     11e:	8f 31       	cpi	r24, 0x1F	; 31
     120:	80 f5       	brcc	.+96     	; 0x182 <DIO_u8ReadPinVal+0x7e>
	    {

		u8 local_u8CheckPinPlace=Copy_u8PinIdx/PINNUMS ;
     122:	8c 81       	ldd	r24, Y+4	; 0x04
     124:	86 95       	lsr	r24
     126:	86 95       	lsr	r24
     128:	86 95       	lsr	r24
     12a:	8a 83       	std	Y+2, r24	; 0x02
		u8 local_u8MapPin=Copy_u8PinIdx%PINNUMS ;
     12c:	8c 81       	ldd	r24, Y+4	; 0x04
     12e:	87 70       	andi	r24, 0x07	; 7
     130:	89 83       	std	Y+1, r24	; 0x01

		* Copy_u8PtrToval=get_bit(*DIO_u8Pins[local_u8CheckPinPlace],local_u8MapPin);
     132:	8a 81       	ldd	r24, Y+2	; 0x02
     134:	88 2f       	mov	r24, r24
     136:	90 e0       	ldi	r25, 0x00	; 0
     138:	88 0f       	add	r24, r24
     13a:	99 1f       	adc	r25, r25
     13c:	fc 01       	movw	r30, r24
     13e:	e0 59       	subi	r30, 0x90	; 144
     140:	ff 4f       	sbci	r31, 0xFF	; 255
     142:	01 90       	ld	r0, Z+
     144:	f0 81       	ld	r31, Z
     146:	e0 2d       	mov	r30, r0
     148:	80 81       	ld	r24, Z
     14a:	48 2f       	mov	r20, r24
     14c:	50 e0       	ldi	r21, 0x00	; 0
     14e:	89 81       	ldd	r24, Y+1	; 0x01
     150:	28 2f       	mov	r18, r24
     152:	30 e0       	ldi	r19, 0x00	; 0
     154:	81 e0       	ldi	r24, 0x01	; 1
     156:	90 e0       	ldi	r25, 0x00	; 0
     158:	02 c0       	rjmp	.+4      	; 0x15e <DIO_u8ReadPinVal+0x5a>
     15a:	88 0f       	add	r24, r24
     15c:	99 1f       	adc	r25, r25
     15e:	2a 95       	dec	r18
     160:	e2 f7       	brpl	.-8      	; 0x15a <DIO_u8ReadPinVal+0x56>
     162:	9a 01       	movw	r18, r20
     164:	28 23       	and	r18, r24
     166:	39 23       	and	r19, r25
     168:	89 81       	ldd	r24, Y+1	; 0x01
     16a:	88 2f       	mov	r24, r24
     16c:	90 e0       	ldi	r25, 0x00	; 0
     16e:	a9 01       	movw	r20, r18
     170:	02 c0       	rjmp	.+4      	; 0x176 <DIO_u8ReadPinVal+0x72>
     172:	55 95       	asr	r21
     174:	47 95       	ror	r20
     176:	8a 95       	dec	r24
     178:	e2 f7       	brpl	.-8      	; 0x172 <DIO_u8ReadPinVal+0x6e>
     17a:	ca 01       	movw	r24, r20
     17c:	ed 81       	ldd	r30, Y+5	; 0x05
     17e:	fe 81       	ldd	r31, Y+6	; 0x06
     180:	80 83       	st	Z, r24
    }
    else
    {

    }
return    Local_u8CheckPinState=ok ;
     182:	81 e0       	ldi	r24, 0x01	; 1
     184:	8b 83       	std	Y+3, r24	; 0x03
     186:	8b 81       	ldd	r24, Y+3	; 0x03
}
     188:	26 96       	adiw	r28, 0x06	; 6
     18a:	0f b6       	in	r0, 0x3f	; 63
     18c:	f8 94       	cli
     18e:	de bf       	out	0x3e, r29	; 62
     190:	0f be       	out	0x3f, r0	; 63
     192:	cd bf       	out	0x3d, r28	; 61
     194:	cf 91       	pop	r28
     196:	df 91       	pop	r29
     198:	08 95       	ret

0000019a <DIO_u8WritePinVal>:

extern u8 DIO_u8WritePinVal(u8 Copy_u8PinIdx,u8 Copy_u8Pinval)
{
     19a:	df 93       	push	r29
     19c:	cf 93       	push	r28
     19e:	00 d0       	rcall	.+0      	; 0x1a0 <DIO_u8WritePinVal+0x6>
     1a0:	00 d0       	rcall	.+0      	; 0x1a2 <DIO_u8WritePinVal+0x8>
     1a2:	00 d0       	rcall	.+0      	; 0x1a4 <DIO_u8WritePinVal+0xa>
     1a4:	cd b7       	in	r28, 0x3d	; 61
     1a6:	de b7       	in	r29, 0x3e	; 62
     1a8:	8d 83       	std	Y+5, r24	; 0x05
     1aa:	6e 83       	std	Y+6, r22	; 0x06
	 u8 Local_u8CheckPinState=ok ;
     1ac:	81 e0       	ldi	r24, 0x01	; 1
     1ae:	8c 83       	std	Y+4, r24	; 0x04

	    if(Copy_u8PinIdx>DIO_u8PINMAXIDX)
     1b0:	8d 81       	ldd	r24, Y+5	; 0x05
     1b2:	80 32       	cpi	r24, 0x20	; 32
     1b4:	10 f0       	brcs	.+4      	; 0x1ba <DIO_u8WritePinVal+0x20>
	    {
	    	 Local_u8CheckPinState=error ;
     1b6:	1c 82       	std	Y+4, r1	; 0x04
     1b8:	64 c0       	rjmp	.+200    	; 0x282 <DIO_u8WritePinVal+0xe8>
	    }
	    else
	    {
	    	 u8 local_u8CheckPinPlace=Copy_u8PinIdx/PINNUMS ;
     1ba:	8d 81       	ldd	r24, Y+5	; 0x05
     1bc:	86 95       	lsr	r24
     1be:	86 95       	lsr	r24
     1c0:	86 95       	lsr	r24
     1c2:	8b 83       	std	Y+3, r24	; 0x03
	    		 u8 local_u8MapPin=Copy_u8PinIdx%PINNUMS ;
     1c4:	8d 81       	ldd	r24, Y+5	; 0x05
     1c6:	87 70       	andi	r24, 0x07	; 7
     1c8:	8a 83       	std	Y+2, r24	; 0x02
	    	     u8 local_u8PinDir;
	    	     local_u8PinDir=get_bit(*DIO_u8Ddrs[local_u8CheckPinPlace],local_u8MapPin);
     1ca:	8b 81       	ldd	r24, Y+3	; 0x03
     1cc:	88 2f       	mov	r24, r24
     1ce:	90 e0       	ldi	r25, 0x00	; 0
     1d0:	88 0f       	add	r24, r24
     1d2:	99 1f       	adc	r25, r25
     1d4:	fc 01       	movw	r30, r24
     1d6:	e8 59       	subi	r30, 0x98	; 152
     1d8:	ff 4f       	sbci	r31, 0xFF	; 255
     1da:	01 90       	ld	r0, Z+
     1dc:	f0 81       	ld	r31, Z
     1de:	e0 2d       	mov	r30, r0
     1e0:	80 81       	ld	r24, Z
     1e2:	48 2f       	mov	r20, r24
     1e4:	50 e0       	ldi	r21, 0x00	; 0
     1e6:	8a 81       	ldd	r24, Y+2	; 0x02
     1e8:	28 2f       	mov	r18, r24
     1ea:	30 e0       	ldi	r19, 0x00	; 0
     1ec:	81 e0       	ldi	r24, 0x01	; 1
     1ee:	90 e0       	ldi	r25, 0x00	; 0
     1f0:	02 c0       	rjmp	.+4      	; 0x1f6 <DIO_u8WritePinVal+0x5c>
     1f2:	88 0f       	add	r24, r24
     1f4:	99 1f       	adc	r25, r25
     1f6:	2a 95       	dec	r18
     1f8:	e2 f7       	brpl	.-8      	; 0x1f2 <DIO_u8WritePinVal+0x58>
     1fa:	9a 01       	movw	r18, r20
     1fc:	28 23       	and	r18, r24
     1fe:	39 23       	and	r19, r25
     200:	8a 81       	ldd	r24, Y+2	; 0x02
     202:	88 2f       	mov	r24, r24
     204:	90 e0       	ldi	r25, 0x00	; 0
     206:	a9 01       	movw	r20, r18
     208:	02 c0       	rjmp	.+4      	; 0x20e <DIO_u8WritePinVal+0x74>
     20a:	55 95       	asr	r21
     20c:	47 95       	ror	r20
     20e:	8a 95       	dec	r24
     210:	e2 f7       	brpl	.-8      	; 0x20a <DIO_u8WritePinVal+0x70>
     212:	ca 01       	movw	r24, r20
     214:	89 83       	std	Y+1, r24	; 0x01
	    	if(local_u8PinDir==1)
     216:	89 81       	ldd	r24, Y+1	; 0x01
     218:	81 30       	cpi	r24, 0x01	; 1
     21a:	99 f5       	brne	.+102    	; 0x282 <DIO_u8WritePinVal+0xe8>
	    	{
	    	assign_bit(*DIO_u8Ports[local_u8CheckPinPlace],local_u8MapPin,Copy_u8Pinval);
     21c:	8b 81       	ldd	r24, Y+3	; 0x03
     21e:	88 2f       	mov	r24, r24
     220:	90 e0       	ldi	r25, 0x00	; 0
     222:	88 0f       	add	r24, r24
     224:	99 1f       	adc	r25, r25
     226:	fc 01       	movw	r30, r24
     228:	e0 5a       	subi	r30, 0xA0	; 160
     22a:	ff 4f       	sbci	r31, 0xFF	; 255
     22c:	a0 81       	ld	r26, Z
     22e:	b1 81       	ldd	r27, Z+1	; 0x01
     230:	8a 81       	ldd	r24, Y+2	; 0x02
     232:	28 2f       	mov	r18, r24
     234:	30 e0       	ldi	r19, 0x00	; 0
     236:	81 e0       	ldi	r24, 0x01	; 1
     238:	90 e0       	ldi	r25, 0x00	; 0
     23a:	02 c0       	rjmp	.+4      	; 0x240 <DIO_u8WritePinVal+0xa6>
     23c:	88 0f       	add	r24, r24
     23e:	99 1f       	adc	r25, r25
     240:	2a 95       	dec	r18
     242:	e2 f7       	brpl	.-8      	; 0x23c <DIO_u8WritePinVal+0xa2>
     244:	28 2f       	mov	r18, r24
     246:	20 95       	com	r18
     248:	8b 81       	ldd	r24, Y+3	; 0x03
     24a:	88 2f       	mov	r24, r24
     24c:	90 e0       	ldi	r25, 0x00	; 0
     24e:	88 0f       	add	r24, r24
     250:	99 1f       	adc	r25, r25
     252:	fc 01       	movw	r30, r24
     254:	e0 5a       	subi	r30, 0xA0	; 160
     256:	ff 4f       	sbci	r31, 0xFF	; 255
     258:	01 90       	ld	r0, Z+
     25a:	f0 81       	ld	r31, Z
     25c:	e0 2d       	mov	r30, r0
     25e:	80 81       	ld	r24, Z
     260:	42 2f       	mov	r20, r18
     262:	48 23       	and	r20, r24
     264:	8e 81       	ldd	r24, Y+6	; 0x06
     266:	28 2f       	mov	r18, r24
     268:	30 e0       	ldi	r19, 0x00	; 0
     26a:	8a 81       	ldd	r24, Y+2	; 0x02
     26c:	88 2f       	mov	r24, r24
     26e:	90 e0       	ldi	r25, 0x00	; 0
     270:	b9 01       	movw	r22, r18
     272:	02 c0       	rjmp	.+4      	; 0x278 <DIO_u8WritePinVal+0xde>
     274:	66 0f       	add	r22, r22
     276:	77 1f       	adc	r23, r23
     278:	8a 95       	dec	r24
     27a:	e2 f7       	brpl	.-8      	; 0x274 <DIO_u8WritePinVal+0xda>
     27c:	cb 01       	movw	r24, r22
     27e:	84 2b       	or	r24, r20
     280:	8c 93       	st	X, r24
	    	{

	    	}
	    }

     return  Local_u8CheckPinState ;
     282:	8c 81       	ldd	r24, Y+4	; 0x04
}
     284:	26 96       	adiw	r28, 0x06	; 6
     286:	0f b6       	in	r0, 0x3f	; 63
     288:	f8 94       	cli
     28a:	de bf       	out	0x3e, r29	; 62
     28c:	0f be       	out	0x3f, r0	; 63
     28e:	cd bf       	out	0x3d, r28	; 61
     290:	cf 91       	pop	r28
     292:	df 91       	pop	r29
     294:	08 95       	ret

00000296 <DIO_u8ReadPortVal>:


extern u8 DIO_u8ReadPortVal(u8 Copy_u8PortIdx,u8* Copy_u8PtrToval)
{
     296:	df 93       	push	r29
     298:	cf 93       	push	r28
     29a:	00 d0       	rcall	.+0      	; 0x29c <DIO_u8ReadPortVal+0x6>
     29c:	00 d0       	rcall	.+0      	; 0x29e <DIO_u8ReadPortVal+0x8>
     29e:	cd b7       	in	r28, 0x3d	; 61
     2a0:	de b7       	in	r29, 0x3e	; 62
     2a2:	8a 83       	std	Y+2, r24	; 0x02
     2a4:	7c 83       	std	Y+4, r23	; 0x04
     2a6:	6b 83       	std	Y+3, r22	; 0x03
	u8 Local_u8CheckPortR=ok ;
     2a8:	81 e0       	ldi	r24, 0x01	; 1
     2aa:	89 83       	std	Y+1, r24	; 0x01

	if(Copy_u8PortIdx<=DIO_u8PORTMAXIDX)
     2ac:	8a 81       	ldd	r24, Y+2	; 0x02
     2ae:	84 30       	cpi	r24, 0x04	; 4
     2b0:	80 f4       	brcc	.+32     	; 0x2d2 <DIO_u8ReadPortVal+0x3c>
	{

	* Copy_u8PtrToval=*DIO_u8Pins[Copy_u8PortIdx] ;
     2b2:	8a 81       	ldd	r24, Y+2	; 0x02
     2b4:	88 2f       	mov	r24, r24
     2b6:	90 e0       	ldi	r25, 0x00	; 0
     2b8:	88 0f       	add	r24, r24
     2ba:	99 1f       	adc	r25, r25
     2bc:	fc 01       	movw	r30, r24
     2be:	e0 59       	subi	r30, 0x90	; 144
     2c0:	ff 4f       	sbci	r31, 0xFF	; 255
     2c2:	01 90       	ld	r0, Z+
     2c4:	f0 81       	ld	r31, Z
     2c6:	e0 2d       	mov	r30, r0
     2c8:	80 81       	ld	r24, Z
     2ca:	eb 81       	ldd	r30, Y+3	; 0x03
     2cc:	fc 81       	ldd	r31, Y+4	; 0x04
     2ce:	80 83       	st	Z, r24
     2d0:	01 c0       	rjmp	.+2      	; 0x2d4 <DIO_u8ReadPortVal+0x3e>
	}
	else
	{
		Local_u8CheckPortR=error ;
     2d2:	19 82       	std	Y+1, r1	; 0x01
	}

	return Local_u8CheckPortR ;
     2d4:	89 81       	ldd	r24, Y+1	; 0x01
}
     2d6:	0f 90       	pop	r0
     2d8:	0f 90       	pop	r0
     2da:	0f 90       	pop	r0
     2dc:	0f 90       	pop	r0
     2de:	cf 91       	pop	r28
     2e0:	df 91       	pop	r29
     2e2:	08 95       	ret

000002e4 <DIO_u8WritePortVal>:

extern u8 DIO_u8WritePortVal(u8 Copy_u8PortIdx,u8 Copy_u8Portval)
{
     2e4:	df 93       	push	r29
     2e6:	cf 93       	push	r28
     2e8:	00 d0       	rcall	.+0      	; 0x2ea <DIO_u8WritePortVal+0x6>
     2ea:	00 d0       	rcall	.+0      	; 0x2ec <DIO_u8WritePortVal+0x8>
     2ec:	cd b7       	in	r28, 0x3d	; 61
     2ee:	de b7       	in	r29, 0x3e	; 62
     2f0:	8b 83       	std	Y+3, r24	; 0x03
     2f2:	6c 83       	std	Y+4, r22	; 0x04
     	u8 Local_u8CheckPortR=ok ;
     2f4:	81 e0       	ldi	r24, 0x01	; 1
     2f6:	8a 83       	std	Y+2, r24	; 0x02
        u8 local_u8PortDir;
		if(Copy_u8PortIdx<=DIO_u8PORTMAXIDX)
     2f8:	8b 81       	ldd	r24, Y+3	; 0x03
     2fa:	84 30       	cpi	r24, 0x04	; 4
     2fc:	f0 f4       	brcc	.+60     	; 0x33a <DIO_u8WritePortVal+0x56>
		{
				local_u8PortDir=*DIO_u8Ddrs[Copy_u8PortIdx] ;
     2fe:	8b 81       	ldd	r24, Y+3	; 0x03
     300:	88 2f       	mov	r24, r24
     302:	90 e0       	ldi	r25, 0x00	; 0
     304:	88 0f       	add	r24, r24
     306:	99 1f       	adc	r25, r25
     308:	fc 01       	movw	r30, r24
     30a:	e8 59       	subi	r30, 0x98	; 152
     30c:	ff 4f       	sbci	r31, 0xFF	; 255
     30e:	01 90       	ld	r0, Z+
     310:	f0 81       	ld	r31, Z
     312:	e0 2d       	mov	r30, r0
     314:	80 81       	ld	r24, Z
     316:	89 83       	std	Y+1, r24	; 0x01
			  if(local_u8PortDir==0xff)
     318:	89 81       	ldd	r24, Y+1	; 0x01
     31a:	8f 3f       	cpi	r24, 0xFF	; 255
     31c:	79 f4       	brne	.+30     	; 0x33c <DIO_u8WritePortVal+0x58>
			  {
		        *DIO_u8Ports[Copy_u8PortIdx]= Copy_u8Portval;
     31e:	8b 81       	ldd	r24, Y+3	; 0x03
     320:	88 2f       	mov	r24, r24
     322:	90 e0       	ldi	r25, 0x00	; 0
     324:	88 0f       	add	r24, r24
     326:	99 1f       	adc	r25, r25
     328:	fc 01       	movw	r30, r24
     32a:	e0 5a       	subi	r30, 0xA0	; 160
     32c:	ff 4f       	sbci	r31, 0xFF	; 255
     32e:	01 90       	ld	r0, Z+
     330:	f0 81       	ld	r31, Z
     332:	e0 2d       	mov	r30, r0
     334:	8c 81       	ldd	r24, Y+4	; 0x04
     336:	80 83       	st	Z, r24
     338:	01 c0       	rjmp	.+2      	; 0x33c <DIO_u8WritePortVal+0x58>

			  }
		}
		else
		{
			Local_u8CheckPortR=error ;
     33a:	1a 82       	std	Y+2, r1	; 0x02
		}

		return Local_u8CheckPortR ;
     33c:	8a 81       	ldd	r24, Y+2	; 0x02
}
     33e:	0f 90       	pop	r0
     340:	0f 90       	pop	r0
     342:	0f 90       	pop	r0
     344:	0f 90       	pop	r0
     346:	cf 91       	pop	r28
     348:	df 91       	pop	r29
     34a:	08 95       	ret

0000034c <DIO_u8WritePinDir>:

extern u8 DIO_u8WritePinDir(u8 Copy_u8PinIdx,u8 Copy_u8PinDir)
{
     34c:	df 93       	push	r29
     34e:	cf 93       	push	r28
     350:	00 d0       	rcall	.+0      	; 0x352 <DIO_u8WritePinDir+0x6>
     352:	00 d0       	rcall	.+0      	; 0x354 <DIO_u8WritePinDir+0x8>
     354:	0f 92       	push	r0
     356:	cd b7       	in	r28, 0x3d	; 61
     358:	de b7       	in	r29, 0x3e	; 62
     35a:	8c 83       	std	Y+4, r24	; 0x04
     35c:	6d 83       	std	Y+5, r22	; 0x05
	     u8 Local_u8CheckPinState=ok ;
     35e:	81 e0       	ldi	r24, 0x01	; 1
     360:	8b 83       	std	Y+3, r24	; 0x03

		    if(Copy_u8PinIdx>DIO_u8PINMAXIDX)
     362:	8c 81       	ldd	r24, Y+4	; 0x04
     364:	80 32       	cpi	r24, 0x20	; 32
     366:	10 f0       	brcs	.+4      	; 0x36c <DIO_u8WritePinDir+0x20>
		    {
		    	 Local_u8CheckPinState=error ;
     368:	1b 82       	std	Y+3, r1	; 0x03
     36a:	3b c0       	rjmp	.+118    	; 0x3e2 <DIO_u8WritePinDir+0x96>
		    }
		    else
		    {
		    	u8 local_u8CheckPinPlace=Copy_u8PinIdx/PINNUMS ;
     36c:	8c 81       	ldd	r24, Y+4	; 0x04
     36e:	86 95       	lsr	r24
     370:	86 95       	lsr	r24
     372:	86 95       	lsr	r24
     374:	8a 83       	std	Y+2, r24	; 0x02
		    	u8 local_u8MapPin=Copy_u8PinIdx%PINNUMS ;
     376:	8c 81       	ldd	r24, Y+4	; 0x04
     378:	87 70       	andi	r24, 0x07	; 7
     37a:	89 83       	std	Y+1, r24	; 0x01
		    	assign_bit(* DIO_u8Ddrs[local_u8CheckPinPlace],local_u8MapPin,Copy_u8PinDir);
     37c:	8a 81       	ldd	r24, Y+2	; 0x02
     37e:	88 2f       	mov	r24, r24
     380:	90 e0       	ldi	r25, 0x00	; 0
     382:	88 0f       	add	r24, r24
     384:	99 1f       	adc	r25, r25
     386:	fc 01       	movw	r30, r24
     388:	e8 59       	subi	r30, 0x98	; 152
     38a:	ff 4f       	sbci	r31, 0xFF	; 255
     38c:	a0 81       	ld	r26, Z
     38e:	b1 81       	ldd	r27, Z+1	; 0x01
     390:	89 81       	ldd	r24, Y+1	; 0x01
     392:	28 2f       	mov	r18, r24
     394:	30 e0       	ldi	r19, 0x00	; 0
     396:	81 e0       	ldi	r24, 0x01	; 1
     398:	90 e0       	ldi	r25, 0x00	; 0
     39a:	02 c0       	rjmp	.+4      	; 0x3a0 <DIO_u8WritePinDir+0x54>
     39c:	88 0f       	add	r24, r24
     39e:	99 1f       	adc	r25, r25
     3a0:	2a 95       	dec	r18
     3a2:	e2 f7       	brpl	.-8      	; 0x39c <DIO_u8WritePinDir+0x50>
     3a4:	28 2f       	mov	r18, r24
     3a6:	20 95       	com	r18
     3a8:	8a 81       	ldd	r24, Y+2	; 0x02
     3aa:	88 2f       	mov	r24, r24
     3ac:	90 e0       	ldi	r25, 0x00	; 0
     3ae:	88 0f       	add	r24, r24
     3b0:	99 1f       	adc	r25, r25
     3b2:	fc 01       	movw	r30, r24
     3b4:	e8 59       	subi	r30, 0x98	; 152
     3b6:	ff 4f       	sbci	r31, 0xFF	; 255
     3b8:	01 90       	ld	r0, Z+
     3ba:	f0 81       	ld	r31, Z
     3bc:	e0 2d       	mov	r30, r0
     3be:	80 81       	ld	r24, Z
     3c0:	42 2f       	mov	r20, r18
     3c2:	48 23       	and	r20, r24
     3c4:	8d 81       	ldd	r24, Y+5	; 0x05
     3c6:	28 2f       	mov	r18, r24
     3c8:	30 e0       	ldi	r19, 0x00	; 0
     3ca:	89 81       	ldd	r24, Y+1	; 0x01
     3cc:	88 2f       	mov	r24, r24
     3ce:	90 e0       	ldi	r25, 0x00	; 0
     3d0:	b9 01       	movw	r22, r18
     3d2:	02 c0       	rjmp	.+4      	; 0x3d8 <DIO_u8WritePinDir+0x8c>
     3d4:	66 0f       	add	r22, r22
     3d6:	77 1f       	adc	r23, r23
     3d8:	8a 95       	dec	r24
     3da:	e2 f7       	brpl	.-8      	; 0x3d4 <DIO_u8WritePinDir+0x88>
     3dc:	cb 01       	movw	r24, r22
     3de:	84 2b       	or	r24, r20
     3e0:	8c 93       	st	X, r24
		    }

	     return  Local_u8CheckPinState ;
     3e2:	8b 81       	ldd	r24, Y+3	; 0x03
}
     3e4:	0f 90       	pop	r0
     3e6:	0f 90       	pop	r0
     3e8:	0f 90       	pop	r0
     3ea:	0f 90       	pop	r0
     3ec:	0f 90       	pop	r0
     3ee:	cf 91       	pop	r28
     3f0:	df 91       	pop	r29
     3f2:	08 95       	ret

000003f4 <DIO_u8WritePortDir>:

extern u8 DIO_u8WritePortDir(u8 Copy_u8PortIdx,u8 Copy_u8PortDir)
{
     3f4:	df 93       	push	r29
     3f6:	cf 93       	push	r28
     3f8:	00 d0       	rcall	.+0      	; 0x3fa <DIO_u8WritePortDir+0x6>
     3fa:	0f 92       	push	r0
     3fc:	cd b7       	in	r28, 0x3d	; 61
     3fe:	de b7       	in	r29, 0x3e	; 62
     400:	8a 83       	std	Y+2, r24	; 0x02
     402:	6b 83       	std	Y+3, r22	; 0x03

	u8 Local_u8CheckPortR=ok ;
     404:	81 e0       	ldi	r24, 0x01	; 1
     406:	89 83       	std	Y+1, r24	; 0x01

			if(Copy_u8PortIdx<=DIO_u8PORTMAXIDX)
     408:	8a 81       	ldd	r24, Y+2	; 0x02
     40a:	84 30       	cpi	r24, 0x04	; 4
     40c:	70 f4       	brcc	.+28     	; 0x42a <DIO_u8WritePortDir+0x36>
			{

			*DIO_u8Ddrs[Copy_u8PortIdx]= Copy_u8PortDir;
     40e:	8a 81       	ldd	r24, Y+2	; 0x02
     410:	88 2f       	mov	r24, r24
     412:	90 e0       	ldi	r25, 0x00	; 0
     414:	88 0f       	add	r24, r24
     416:	99 1f       	adc	r25, r25
     418:	fc 01       	movw	r30, r24
     41a:	e8 59       	subi	r30, 0x98	; 152
     41c:	ff 4f       	sbci	r31, 0xFF	; 255
     41e:	01 90       	ld	r0, Z+
     420:	f0 81       	ld	r31, Z
     422:	e0 2d       	mov	r30, r0
     424:	8b 81       	ldd	r24, Y+3	; 0x03
     426:	80 83       	st	Z, r24
     428:	01 c0       	rjmp	.+2      	; 0x42c <DIO_u8WritePortDir+0x38>
			}
			else
			{
				Local_u8CheckPortR=error ;
     42a:	19 82       	std	Y+1, r1	; 0x01
			}

			return Local_u8CheckPortR ;
     42c:	89 81       	ldd	r24, Y+1	; 0x01
}
     42e:	0f 90       	pop	r0
     430:	0f 90       	pop	r0
     432:	0f 90       	pop	r0
     434:	cf 91       	pop	r28
     436:	df 91       	pop	r29
     438:	08 95       	ret

0000043a <DIO_u8ReadPinDir>:

extern u8 DIO_u8ReadPinDir(u8 Copy_u8PinIdx,u8 * Copy_u8PtrToDir)
{
     43a:	df 93       	push	r29
     43c:	cf 93       	push	r28
     43e:	00 d0       	rcall	.+0      	; 0x440 <DIO_u8ReadPinDir+0x6>
     440:	00 d0       	rcall	.+0      	; 0x442 <DIO_u8ReadPinDir+0x8>
     442:	00 d0       	rcall	.+0      	; 0x444 <DIO_u8ReadPinDir+0xa>
     444:	cd b7       	in	r28, 0x3d	; 61
     446:	de b7       	in	r29, 0x3e	; 62
     448:	8c 83       	std	Y+4, r24	; 0x04
     44a:	7e 83       	std	Y+6, r23	; 0x06
     44c:	6d 83       	std	Y+5, r22	; 0x05
	 u8 Local_u8CheckPinState=ok ;
     44e:	81 e0       	ldi	r24, 0x01	; 1
     450:	8b 83       	std	Y+3, r24	; 0x03


	    if(Copy_u8PinIdx>DIO_u8PINMAXIDX)
     452:	8c 81       	ldd	r24, Y+4	; 0x04
     454:	80 32       	cpi	r24, 0x20	; 32
     456:	10 f0       	brcs	.+4      	; 0x45c <DIO_u8ReadPinDir+0x22>
	    {
	    	 Local_u8CheckPinState=error ;
     458:	1b 82       	std	Y+3, r1	; 0x03
     45a:	30 c0       	rjmp	.+96     	; 0x4bc <DIO_u8ReadPinDir+0x82>
	    }
	    else
	    {
	    	u8 local_u8CheckPinPlace=Copy_u8PinIdx/PINNUMS;
     45c:	8c 81       	ldd	r24, Y+4	; 0x04
     45e:	86 95       	lsr	r24
     460:	86 95       	lsr	r24
     462:	86 95       	lsr	r24
     464:	8a 83       	std	Y+2, r24	; 0x02
	    		 u8 local_u8MapPin=Copy_u8PinIdx%PINNUMS ;
     466:	8c 81       	ldd	r24, Y+4	; 0x04
     468:	87 70       	andi	r24, 0x07	; 7
     46a:	89 83       	std	Y+1, r24	; 0x01
	    	* Copy_u8PtrToDir=get_bit(*DIO_u8Ddrs[local_u8CheckPinPlace],local_u8MapPin);
     46c:	8a 81       	ldd	r24, Y+2	; 0x02
     46e:	88 2f       	mov	r24, r24
     470:	90 e0       	ldi	r25, 0x00	; 0
     472:	88 0f       	add	r24, r24
     474:	99 1f       	adc	r25, r25
     476:	fc 01       	movw	r30, r24
     478:	e8 59       	subi	r30, 0x98	; 152
     47a:	ff 4f       	sbci	r31, 0xFF	; 255
     47c:	01 90       	ld	r0, Z+
     47e:	f0 81       	ld	r31, Z
     480:	e0 2d       	mov	r30, r0
     482:	80 81       	ld	r24, Z
     484:	48 2f       	mov	r20, r24
     486:	50 e0       	ldi	r21, 0x00	; 0
     488:	89 81       	ldd	r24, Y+1	; 0x01
     48a:	28 2f       	mov	r18, r24
     48c:	30 e0       	ldi	r19, 0x00	; 0
     48e:	81 e0       	ldi	r24, 0x01	; 1
     490:	90 e0       	ldi	r25, 0x00	; 0
     492:	02 c0       	rjmp	.+4      	; 0x498 <DIO_u8ReadPinDir+0x5e>
     494:	88 0f       	add	r24, r24
     496:	99 1f       	adc	r25, r25
     498:	2a 95       	dec	r18
     49a:	e2 f7       	brpl	.-8      	; 0x494 <DIO_u8ReadPinDir+0x5a>
     49c:	9a 01       	movw	r18, r20
     49e:	28 23       	and	r18, r24
     4a0:	39 23       	and	r19, r25
     4a2:	89 81       	ldd	r24, Y+1	; 0x01
     4a4:	88 2f       	mov	r24, r24
     4a6:	90 e0       	ldi	r25, 0x00	; 0
     4a8:	a9 01       	movw	r20, r18
     4aa:	02 c0       	rjmp	.+4      	; 0x4b0 <DIO_u8ReadPinDir+0x76>
     4ac:	55 95       	asr	r21
     4ae:	47 95       	ror	r20
     4b0:	8a 95       	dec	r24
     4b2:	e2 f7       	brpl	.-8      	; 0x4ac <DIO_u8ReadPinDir+0x72>
     4b4:	ca 01       	movw	r24, r20
     4b6:	ed 81       	ldd	r30, Y+5	; 0x05
     4b8:	fe 81       	ldd	r31, Y+6	; 0x06
     4ba:	80 83       	st	Z, r24
	    }
	return  Local_u8CheckPinState ;
     4bc:	8b 81       	ldd	r24, Y+3	; 0x03
}
     4be:	26 96       	adiw	r28, 0x06	; 6
     4c0:	0f b6       	in	r0, 0x3f	; 63
     4c2:	f8 94       	cli
     4c4:	de bf       	out	0x3e, r29	; 62
     4c6:	0f be       	out	0x3f, r0	; 63
     4c8:	cd bf       	out	0x3d, r28	; 61
     4ca:	cf 91       	pop	r28
     4cc:	df 91       	pop	r29
     4ce:	08 95       	ret

000004d0 <DIO_u8ReadPortDir>:

extern u8 DIO_u8ReadPortDir(u8 Copy_u8PortIdx,u8 *Copy_u8PtrToDir)
{
     4d0:	df 93       	push	r29
     4d2:	cf 93       	push	r28
     4d4:	00 d0       	rcall	.+0      	; 0x4d6 <DIO_u8ReadPortDir+0x6>
     4d6:	00 d0       	rcall	.+0      	; 0x4d8 <DIO_u8ReadPortDir+0x8>
     4d8:	cd b7       	in	r28, 0x3d	; 61
     4da:	de b7       	in	r29, 0x3e	; 62
     4dc:	8a 83       	std	Y+2, r24	; 0x02
     4de:	7c 83       	std	Y+4, r23	; 0x04
     4e0:	6b 83       	std	Y+3, r22	; 0x03
	u8 Local_u8CheckPortR=ok ;
     4e2:	81 e0       	ldi	r24, 0x01	; 1
     4e4:	89 83       	std	Y+1, r24	; 0x01

		if(Copy_u8PortIdx<=DIO_u8PORTMAXIDX)
     4e6:	8a 81       	ldd	r24, Y+2	; 0x02
     4e8:	84 30       	cpi	r24, 0x04	; 4
     4ea:	80 f4       	brcc	.+32     	; 0x50c <DIO_u8ReadPortDir+0x3c>
		{

		* Copy_u8PtrToDir=*DIO_u8Pins[Copy_u8PortIdx] ;
     4ec:	8a 81       	ldd	r24, Y+2	; 0x02
     4ee:	88 2f       	mov	r24, r24
     4f0:	90 e0       	ldi	r25, 0x00	; 0
     4f2:	88 0f       	add	r24, r24
     4f4:	99 1f       	adc	r25, r25
     4f6:	fc 01       	movw	r30, r24
     4f8:	e0 59       	subi	r30, 0x90	; 144
     4fa:	ff 4f       	sbci	r31, 0xFF	; 255
     4fc:	01 90       	ld	r0, Z+
     4fe:	f0 81       	ld	r31, Z
     500:	e0 2d       	mov	r30, r0
     502:	80 81       	ld	r24, Z
     504:	eb 81       	ldd	r30, Y+3	; 0x03
     506:	fc 81       	ldd	r31, Y+4	; 0x04
     508:	80 83       	st	Z, r24
     50a:	01 c0       	rjmp	.+2      	; 0x50e <DIO_u8ReadPortDir+0x3e>
		}
		else
		{
			Local_u8CheckPortR=error ;
     50c:	19 82       	std	Y+1, r1	; 0x01
		}

		return Local_u8CheckPortR ;
     50e:	89 81       	ldd	r24, Y+1	; 0x01
}
     510:	0f 90       	pop	r0
     512:	0f 90       	pop	r0
     514:	0f 90       	pop	r0
     516:	0f 90       	pop	r0
     518:	cf 91       	pop	r28
     51a:	df 91       	pop	r29
     51c:	08 95       	ret

0000051e <TSW_voidinit>:
static u8 TSW_LowCounter;
static u8 TSW_HighCounter;


extern void TSW_voidinit(void)
{
     51e:	df 93       	push	r29
     520:	cf 93       	push	r28
     522:	cd b7       	in	r28, 0x3d	; 61
     524:	de b7       	in	r29, 0x3e	; 62

	TSW_ButtonState=TSW_u8RELEASED ;
     526:	10 92 2c 01 	sts	0x012C, r1
	TSW_laststat=TSW_u8RELEASED;
     52a:	10 92 2e 01 	sts	0x012E, r1
	TSW_ButtonVal=TSW_u8RELEASED ;
     52e:	10 92 2d 01 	sts	0x012D, r1
	TSW_LowCounter=TSW_u8RELEASED ;
     532:	10 92 2f 01 	sts	0x012F, r1
	TSW_HighCounter=TSW_u8RELEASED;
     536:	10 92 30 01 	sts	0x0130, r1
}
     53a:	cf 91       	pop	r28
     53c:	df 91       	pop	r29
     53e:	08 95       	ret

00000540 <TSW_u8ReadState>:

extern u8 TSW_u8ReadState(u8 Copy_u8SwIdx,u8 * Copy_u8PtrToState)
{
     540:	df 93       	push	r29
     542:	cf 93       	push	r28
     544:	cd b7       	in	r28, 0x3d	; 61
     546:	de b7       	in	r29, 0x3e	; 62
     548:	27 97       	sbiw	r28, 0x07	; 7
     54a:	0f b6       	in	r0, 0x3f	; 63
     54c:	f8 94       	cli
     54e:	de bf       	out	0x3e, r29	; 62
     550:	0f be       	out	0x3f, r0	; 63
     552:	cd bf       	out	0x3d, r28	; 61
     554:	89 83       	std	Y+1, r24	; 0x01
     556:	7b 83       	std	Y+3, r23	; 0x03
     558:	6a 83       	std	Y+2, r22	; 0x02
	//u8 local_u8GetButtonStateStatus=ok;
		DIO_u8ReadPinVal(TSW_SWtchs[Copy_u8SwIdx],&TSW_ButtonVal);
     55a:	89 81       	ldd	r24, Y+1	; 0x01
     55c:	88 2f       	mov	r24, r24
     55e:	90 e0       	ldi	r25, 0x00	; 0
     560:	fc 01       	movw	r30, r24
     562:	e8 58       	subi	r30, 0x88	; 136
     564:	ff 4f       	sbci	r31, 0xFF	; 255
     566:	80 81       	ld	r24, Z
     568:	2d e2       	ldi	r18, 0x2D	; 45
     56a:	31 e0       	ldi	r19, 0x01	; 1
     56c:	b9 01       	movw	r22, r18
     56e:	0e 94 82 00 	call	0x104	; 0x104 <DIO_u8ReadPinVal>

		switch  (TSW_ButtonState)
     572:	80 91 2c 01 	lds	r24, 0x012C
     576:	28 2f       	mov	r18, r24
     578:	30 e0       	ldi	r19, 0x00	; 0
     57a:	3f 83       	std	Y+7, r19	; 0x07
     57c:	2e 83       	std	Y+6, r18	; 0x06
     57e:	8e 81       	ldd	r24, Y+6	; 0x06
     580:	9f 81       	ldd	r25, Y+7	; 0x07
     582:	81 30       	cpi	r24, 0x01	; 1
     584:	91 05       	cpc	r25, r1
     586:	e9 f0       	breq	.+58     	; 0x5c2 <TSW_u8ReadState+0x82>
     588:	2e 81       	ldd	r18, Y+6	; 0x06
     58a:	3f 81       	ldd	r19, Y+7	; 0x07
     58c:	22 30       	cpi	r18, 0x02	; 2
     58e:	31 05       	cpc	r19, r1
     590:	69 f1       	breq	.+90     	; 0x5ec <TSW_u8ReadState+0xac>
     592:	8e 81       	ldd	r24, Y+6	; 0x06
     594:	9f 81       	ldd	r25, Y+7	; 0x07
     596:	00 97       	sbiw	r24, 0x00	; 0
     598:	09 f0       	breq	.+2      	; 0x59c <TSW_u8ReadState+0x5c>
     59a:	5e c0       	rjmp	.+188    	; 0x658 <TSW_u8ReadState+0x118>
		{
			case TSW_u8RELEASED:
				if(TSW_ButtonVal==1)
     59c:	80 91 2d 01 	lds	r24, 0x012D
     5a0:	81 30       	cpi	r24, 0x01	; 1
     5a2:	59 f4       	brne	.+22     	; 0x5ba <TSW_u8ReadState+0x7a>
					{
					TSW_ButtonState=TSW_BOUNCE;
     5a4:	82 e0       	ldi	r24, 0x02	; 2
     5a6:	80 93 2c 01 	sts	0x012C, r24
					TSW_laststat=TSW_u8RELEASED;
     5aa:	10 92 2e 01 	sts	0x012E, r1
					* Copy_u8PtrToState=TSW_laststat;
     5ae:	80 91 2e 01 	lds	r24, 0x012E
     5b2:	ea 81       	ldd	r30, Y+2	; 0x02
     5b4:	fb 81       	ldd	r31, Y+3	; 0x03
     5b6:	80 83       	st	Z, r24
     5b8:	4f c0       	rjmp	.+158    	; 0x658 <TSW_u8ReadState+0x118>
					}
				else
				{
					*Copy_u8PtrToState=TSW_u8RELEASED;
     5ba:	ea 81       	ldd	r30, Y+2	; 0x02
     5bc:	fb 81       	ldd	r31, Y+3	; 0x03
     5be:	10 82       	st	Z, r1
     5c0:	4b c0       	rjmp	.+150    	; 0x658 <TSW_u8ReadState+0x118>
				}
				break;
			case TSW_u8PRESSED:
				if(TSW_ButtonVal==0)
     5c2:	80 91 2d 01 	lds	r24, 0x012D
     5c6:	88 23       	and	r24, r24
     5c8:	61 f4       	brne	.+24     	; 0x5e2 <TSW_u8ReadState+0xa2>
						{
					TSW_ButtonState=TSW_BOUNCE;
     5ca:	82 e0       	ldi	r24, 0x02	; 2
     5cc:	80 93 2c 01 	sts	0x012C, r24
							TSW_laststat=TSW_u8PRESSED;
     5d0:	81 e0       	ldi	r24, 0x01	; 1
     5d2:	80 93 2e 01 	sts	0x012E, r24
							* Copy_u8PtrToState=TSW_laststat;
     5d6:	80 91 2e 01 	lds	r24, 0x012E
     5da:	ea 81       	ldd	r30, Y+2	; 0x02
     5dc:	fb 81       	ldd	r31, Y+3	; 0x03
     5de:	80 83       	st	Z, r24
     5e0:	3b c0       	rjmp	.+118    	; 0x658 <TSW_u8ReadState+0x118>
						}
				else
				{
					*Copy_u8PtrToState=TSW_u8PRESSED;
     5e2:	ea 81       	ldd	r30, Y+2	; 0x02
     5e4:	fb 81       	ldd	r31, Y+3	; 0x03
     5e6:	81 e0       	ldi	r24, 0x01	; 1
     5e8:	80 83       	st	Z, r24
     5ea:	36 c0       	rjmp	.+108    	; 0x658 <TSW_u8ReadState+0x118>
				}
				break;
			case TSW_BOUNCE:
				if(TSW_ButtonVal==1)
     5ec:	80 91 2d 01 	lds	r24, 0x012D
     5f0:	81 30       	cpi	r24, 0x01	; 1
     5f2:	59 f4       	brne	.+22     	; 0x60a <TSW_u8ReadState+0xca>
				{
					TSW_HighCounter++;
     5f4:	80 91 30 01 	lds	r24, 0x0130
     5f8:	8f 5f       	subi	r24, 0xFF	; 255
     5fa:	80 93 30 01 	sts	0x0130, r24
					*Copy_u8PtrToState=TSW_laststat;
     5fe:	80 91 2e 01 	lds	r24, 0x012E
     602:	ea 81       	ldd	r30, Y+2	; 0x02
     604:	fb 81       	ldd	r31, Y+3	; 0x03
     606:	80 83       	st	Z, r24
     608:	0a c0       	rjmp	.+20     	; 0x61e <TSW_u8ReadState+0xde>
				}
				else
				{
					TSW_LowCounter++;
     60a:	80 91 2f 01 	lds	r24, 0x012F
     60e:	8f 5f       	subi	r24, 0xFF	; 255
     610:	80 93 2f 01 	sts	0x012F, r24
					*Copy_u8PtrToState=TSW_laststat;
     614:	80 91 2e 01 	lds	r24, 0x012E
     618:	ea 81       	ldd	r30, Y+2	; 0x02
     61a:	fb 81       	ldd	r31, Y+3	; 0x03
     61c:	80 83       	st	Z, r24
				}
				if(TSW_HighCounter==BOUNCETIME)
     61e:	80 91 30 01 	lds	r24, 0x0130
     622:	8a 30       	cpi	r24, 0x0A	; 10
     624:	61 f4       	brne	.+24     	; 0x63e <TSW_u8ReadState+0xfe>
				{
					TSW_ButtonState=TSW_u8PRESSED;
     626:	81 e0       	ldi	r24, 0x01	; 1
     628:	80 93 2c 01 	sts	0x012C, r24
					TSW_HighCounter=0;
     62c:	10 92 30 01 	sts	0x0130, r1
					TSW_LowCounter=0;
     630:	10 92 2f 01 	sts	0x012F, r1
					*Copy_u8PtrToState=TSW_u8PRESSED;
     634:	ea 81       	ldd	r30, Y+2	; 0x02
     636:	fb 81       	ldd	r31, Y+3	; 0x03
     638:	81 e0       	ldi	r24, 0x01	; 1
     63a:	80 83       	st	Z, r24
     63c:	0d c0       	rjmp	.+26     	; 0x658 <TSW_u8ReadState+0x118>
				}
				else if (TSW_LowCounter==BOUNCETIME)
     63e:	80 91 2f 01 	lds	r24, 0x012F
     642:	8a 30       	cpi	r24, 0x0A	; 10
     644:	49 f4       	brne	.+18     	; 0x658 <TSW_u8ReadState+0x118>
				{
					TSW_ButtonState=TSW_u8RELEASED;
     646:	10 92 2c 01 	sts	0x012C, r1
					TSW_LowCounter=0;
     64a:	10 92 2f 01 	sts	0x012F, r1
					TSW_HighCounter=0;
     64e:	10 92 30 01 	sts	0x0130, r1
					*Copy_u8PtrToState=TSW_u8RELEASED;
     652:	ea 81       	ldd	r30, Y+2	; 0x02
     654:	fb 81       	ldd	r31, Y+3	; 0x03
     656:	10 82       	st	Z, r1
				break;
			default:
				break;
			}

return CheckErr[Copy_u8SwIdx<15];
     658:	1d 82       	std	Y+5, r1	; 0x05
     65a:	1c 82       	std	Y+4, r1	; 0x04
     65c:	89 81       	ldd	r24, Y+1	; 0x01
     65e:	8f 30       	cpi	r24, 0x0F	; 15
     660:	20 f4       	brcc	.+8      	; 0x66a <TSW_u8ReadState+0x12a>
     662:	21 e0       	ldi	r18, 0x01	; 1
     664:	30 e0       	ldi	r19, 0x00	; 0
     666:	3d 83       	std	Y+5, r19	; 0x05
     668:	2c 83       	std	Y+4, r18	; 0x04
     66a:	ec 81       	ldd	r30, Y+4	; 0x04
     66c:	fd 81       	ldd	r31, Y+5	; 0x05
     66e:	e7 58       	subi	r30, 0x87	; 135
     670:	ff 4f       	sbci	r31, 0xFF	; 255
     672:	80 81       	ld	r24, Z
}
     674:	27 96       	adiw	r28, 0x07	; 7
     676:	0f b6       	in	r0, 0x3f	; 63
     678:	f8 94       	cli
     67a:	de bf       	out	0x3e, r29	; 62
     67c:	0f be       	out	0x3f, r0	; 63
     67e:	cd bf       	out	0x3d, r28	; 61
     680:	cf 91       	pop	r28
     682:	df 91       	pop	r29
     684:	08 95       	ret

00000686 <main>:

void cols(u8 *PIN_NUM);
void rows(u8 *PIN_NUM);

void main (void)
{
     686:	df 93       	push	r29
     688:	cf 93       	push	r28
     68a:	cd b7       	in	r28, 0x3d	; 61
     68c:	de b7       	in	r29, 0x3e	; 62
     68e:	6b 97       	sbiw	r28, 0x1b	; 27
     690:	0f b6       	in	r0, 0x3f	; 63
     692:	f8 94       	cli
     694:	de bf       	out	0x3e, r29	; 62
     696:	0f be       	out	0x3f, r0	; 63
     698:	cd bf       	out	0x3d, r28	; 61
 u8 x ;
	DIO_voidInit();
     69a:	0e 94 49 00 	call	0x92	; 0x92 <DIO_voidInit>

	u8 cola_H[]={1,1,1,1,1,1,1,1};
     69e:	ce 01       	movw	r24, r28
     6a0:	02 96       	adiw	r24, 0x02	; 2
     6a2:	9b 8b       	std	Y+19, r25	; 0x13
     6a4:	8a 8b       	std	Y+18, r24	; 0x12
     6a6:	e3 e8       	ldi	r30, 0x83	; 131
     6a8:	f0 e0       	ldi	r31, 0x00	; 0
     6aa:	fd 8b       	std	Y+21, r31	; 0x15
     6ac:	ec 8b       	std	Y+20, r30	; 0x14
     6ae:	f8 e0       	ldi	r31, 0x08	; 8
     6b0:	fe 8b       	std	Y+22, r31	; 0x16
     6b2:	ec 89       	ldd	r30, Y+20	; 0x14
     6b4:	fd 89       	ldd	r31, Y+21	; 0x15
     6b6:	00 80       	ld	r0, Z
     6b8:	8c 89       	ldd	r24, Y+20	; 0x14
     6ba:	9d 89       	ldd	r25, Y+21	; 0x15
     6bc:	01 96       	adiw	r24, 0x01	; 1
     6be:	9d 8b       	std	Y+21, r25	; 0x15
     6c0:	8c 8b       	std	Y+20, r24	; 0x14
     6c2:	ea 89       	ldd	r30, Y+18	; 0x12
     6c4:	fb 89       	ldd	r31, Y+19	; 0x13
     6c6:	00 82       	st	Z, r0
     6c8:	8a 89       	ldd	r24, Y+18	; 0x12
     6ca:	9b 89       	ldd	r25, Y+19	; 0x13
     6cc:	01 96       	adiw	r24, 0x01	; 1
     6ce:	9b 8b       	std	Y+19, r25	; 0x13
     6d0:	8a 8b       	std	Y+18, r24	; 0x12
     6d2:	9e 89       	ldd	r25, Y+22	; 0x16
     6d4:	91 50       	subi	r25, 0x01	; 1
     6d6:	9e 8b       	std	Y+22, r25	; 0x16
     6d8:	ee 89       	ldd	r30, Y+22	; 0x16
     6da:	ee 23       	and	r30, r30
     6dc:	51 f7       	brne	.-44     	; 0x6b2 <main+0x2c>
		u8 rowa_H[]={1,1,1,1,1,1,1,1};
     6de:	ce 01       	movw	r24, r28
     6e0:	0a 96       	adiw	r24, 0x0a	; 10
     6e2:	98 8f       	std	Y+24, r25	; 0x18
     6e4:	8f 8b       	std	Y+23, r24	; 0x17
     6e6:	eb e7       	ldi	r30, 0x7B	; 123
     6e8:	f0 e0       	ldi	r31, 0x00	; 0
     6ea:	fa 8f       	std	Y+26, r31	; 0x1a
     6ec:	e9 8f       	std	Y+25, r30	; 0x19
     6ee:	f8 e0       	ldi	r31, 0x08	; 8
     6f0:	fb 8f       	std	Y+27, r31	; 0x1b
     6f2:	e9 8d       	ldd	r30, Y+25	; 0x19
     6f4:	fa 8d       	ldd	r31, Y+26	; 0x1a
     6f6:	00 80       	ld	r0, Z
     6f8:	89 8d       	ldd	r24, Y+25	; 0x19
     6fa:	9a 8d       	ldd	r25, Y+26	; 0x1a
     6fc:	01 96       	adiw	r24, 0x01	; 1
     6fe:	9a 8f       	std	Y+26, r25	; 0x1a
     700:	89 8f       	std	Y+25, r24	; 0x19
     702:	ef 89       	ldd	r30, Y+23	; 0x17
     704:	f8 8d       	ldd	r31, Y+24	; 0x18
     706:	00 82       	st	Z, r0
     708:	8f 89       	ldd	r24, Y+23	; 0x17
     70a:	98 8d       	ldd	r25, Y+24	; 0x18
     70c:	01 96       	adiw	r24, 0x01	; 1
     70e:	98 8f       	std	Y+24, r25	; 0x18
     710:	8f 8b       	std	Y+23, r24	; 0x17
     712:	9b 8d       	ldd	r25, Y+27	; 0x1b
     714:	91 50       	subi	r25, 0x01	; 1
     716:	9b 8f       	std	Y+27, r25	; 0x1b
     718:	eb 8d       	ldd	r30, Y+27	; 0x1b
     71a:	ee 23       	and	r30, r30
     71c:	51 f7       	brne	.-44     	; 0x6f2 <main+0x6c>
		DIO_u8WritePinDir(17,1);
     71e:	81 e1       	ldi	r24, 0x11	; 17
     720:	61 e0       	ldi	r22, 0x01	; 1
     722:	0e 94 a6 01 	call	0x34c	; 0x34c <DIO_u8WritePinDir>
			DIO_u8WritePinDir(16,0);
     726:	80 e1       	ldi	r24, 0x10	; 16
     728:	60 e0       	ldi	r22, 0x00	; 0
     72a:	0e 94 a6 01 	call	0x34c	; 0x34c <DIO_u8WritePinDir>
//    	Write_M() ;
//    	Write_D() ;
//     	Write_O() ;
//        Write_H() ;

    	TSW_u8ReadState(0,&x);
     72e:	80 e0       	ldi	r24, 0x00	; 0
     730:	9e 01       	movw	r18, r28
     732:	2f 5f       	subi	r18, 0xFF	; 255
     734:	3f 4f       	sbci	r19, 0xFF	; 255
     736:	b9 01       	movw	r22, r18
     738:	0e 94 a0 02 	call	0x540	; 0x540 <TSW_u8ReadState>
if(x==1)
     73c:	89 81       	ldd	r24, Y+1	; 0x01
     73e:	81 30       	cpi	r24, 0x01	; 1
     740:	29 f4       	brne	.+10     	; 0x74c <main+0xc6>
{
	DIO_u8WritePinVal(17,1);
     742:	81 e1       	ldi	r24, 0x11	; 17
     744:	61 e0       	ldi	r22, 0x01	; 1
     746:	0e 94 cd 00 	call	0x19a	; 0x19a <DIO_u8WritePinVal>
     74a:	f1 cf       	rjmp	.-30     	; 0x72e <main+0xa8>

}
else
{
	DIO_u8WritePinVal(17,0);
     74c:	81 e1       	ldi	r24, 0x11	; 17
     74e:	60 e0       	ldi	r22, 0x00	; 0
     750:	0e 94 cd 00 	call	0x19a	; 0x19a <DIO_u8WritePinVal>
     754:	ec cf       	rjmp	.-40     	; 0x72e <main+0xa8>

00000756 <Write_M>:
    	    }

}

void Write_M(void)
{
     756:	df 93       	push	r29
     758:	cf 93       	push	r28
     75a:	cd b7       	in	r28, 0x3d	; 61
     75c:	de b7       	in	r29, 0x3e	; 62
     75e:	c5 5a       	subi	r28, 0xA5	; 165
     760:	d0 40       	sbci	r29, 0x00	; 0
     762:	0f b6       	in	r0, 0x3f	; 63
     764:	f8 94       	cli
     766:	de bf       	out	0x3e, r29	; 62
     768:	0f be       	out	0x3f, r0	; 63
     76a:	cd bf       	out	0x3d, r28	; 61
	////////////M//////////////////////
		u8 cola_M[]={1,0,0,0,0,0,0,0};
     76c:	88 e0       	ldi	r24, 0x08	; 8
     76e:	fe 01       	movw	r30, r28
     770:	7e 96       	adiw	r30, 0x1e	; 30
     772:	df 01       	movw	r26, r30
     774:	98 2f       	mov	r25, r24
     776:	1d 92       	st	X+, r1
     778:	9a 95       	dec	r25
     77a:	e9 f7       	brne	.-6      	; 0x776 <Write_M+0x20>
     77c:	81 e0       	ldi	r24, 0x01	; 1
     77e:	8e 8f       	std	Y+30, r24	; 0x1e
		u8 rowa_M[]={1,1,1,1,1,1,1,1};
     780:	de 01       	movw	r26, r28
     782:	96 96       	adiw	r26, 0x26	; 38
     784:	c4 56       	subi	r28, 0x64	; 100
     786:	df 4f       	sbci	r29, 0xFF	; 255
     788:	b9 83       	std	Y+1, r27	; 0x01
     78a:	a8 83       	st	Y, r26
     78c:	cc 59       	subi	r28, 0x9C	; 156
     78e:	d0 40       	sbci	r29, 0x00	; 0
     790:	e3 e9       	ldi	r30, 0x93	; 147
     792:	f0 e0       	ldi	r31, 0x00	; 0
     794:	c2 56       	subi	r28, 0x62	; 98
     796:	df 4f       	sbci	r29, 0xFF	; 255
     798:	f9 83       	std	Y+1, r31	; 0x01
     79a:	e8 83       	st	Y, r30
     79c:	ce 59       	subi	r28, 0x9E	; 158
     79e:	d0 40       	sbci	r29, 0x00	; 0
     7a0:	f8 e0       	ldi	r31, 0x08	; 8
     7a2:	c0 56       	subi	r28, 0x60	; 96
     7a4:	df 4f       	sbci	r29, 0xFF	; 255
     7a6:	f8 83       	st	Y, r31
     7a8:	c0 5a       	subi	r28, 0xA0	; 160
     7aa:	d0 40       	sbci	r29, 0x00	; 0
     7ac:	c2 56       	subi	r28, 0x62	; 98
     7ae:	df 4f       	sbci	r29, 0xFF	; 255
     7b0:	a8 81       	ld	r26, Y
     7b2:	b9 81       	ldd	r27, Y+1	; 0x01
     7b4:	ce 59       	subi	r28, 0x9E	; 158
     7b6:	d0 40       	sbci	r29, 0x00	; 0
     7b8:	0c 90       	ld	r0, X
     7ba:	c2 56       	subi	r28, 0x62	; 98
     7bc:	df 4f       	sbci	r29, 0xFF	; 255
     7be:	e8 81       	ld	r30, Y
     7c0:	f9 81       	ldd	r31, Y+1	; 0x01
     7c2:	ce 59       	subi	r28, 0x9E	; 158
     7c4:	d0 40       	sbci	r29, 0x00	; 0
     7c6:	31 96       	adiw	r30, 0x01	; 1
     7c8:	c2 56       	subi	r28, 0x62	; 98
     7ca:	df 4f       	sbci	r29, 0xFF	; 255
     7cc:	f9 83       	std	Y+1, r31	; 0x01
     7ce:	e8 83       	st	Y, r30
     7d0:	ce 59       	subi	r28, 0x9E	; 158
     7d2:	d0 40       	sbci	r29, 0x00	; 0
     7d4:	c4 56       	subi	r28, 0x64	; 100
     7d6:	df 4f       	sbci	r29, 0xFF	; 255
     7d8:	a8 81       	ld	r26, Y
     7da:	b9 81       	ldd	r27, Y+1	; 0x01
     7dc:	cc 59       	subi	r28, 0x9C	; 156
     7de:	d0 40       	sbci	r29, 0x00	; 0
     7e0:	0c 92       	st	X, r0
     7e2:	c4 56       	subi	r28, 0x64	; 100
     7e4:	df 4f       	sbci	r29, 0xFF	; 255
     7e6:	e8 81       	ld	r30, Y
     7e8:	f9 81       	ldd	r31, Y+1	; 0x01
     7ea:	cc 59       	subi	r28, 0x9C	; 156
     7ec:	d0 40       	sbci	r29, 0x00	; 0
     7ee:	31 96       	adiw	r30, 0x01	; 1
     7f0:	c4 56       	subi	r28, 0x64	; 100
     7f2:	df 4f       	sbci	r29, 0xFF	; 255
     7f4:	f9 83       	std	Y+1, r31	; 0x01
     7f6:	e8 83       	st	Y, r30
     7f8:	cc 59       	subi	r28, 0x9C	; 156
     7fa:	d0 40       	sbci	r29, 0x00	; 0
     7fc:	c0 56       	subi	r28, 0x60	; 96
     7fe:	df 4f       	sbci	r29, 0xFF	; 255
     800:	f8 81       	ld	r31, Y
     802:	c0 5a       	subi	r28, 0xA0	; 160
     804:	d0 40       	sbci	r29, 0x00	; 0
     806:	f1 50       	subi	r31, 0x01	; 1
     808:	c0 56       	subi	r28, 0x60	; 96
     80a:	df 4f       	sbci	r29, 0xFF	; 255
     80c:	f8 83       	st	Y, r31
     80e:	c0 5a       	subi	r28, 0xA0	; 160
     810:	d0 40       	sbci	r29, 0x00	; 0
     812:	c0 56       	subi	r28, 0x60	; 96
     814:	df 4f       	sbci	r29, 0xFF	; 255
     816:	88 81       	ld	r24, Y
     818:	c0 5a       	subi	r28, 0xA0	; 160
     81a:	d0 40       	sbci	r29, 0x00	; 0
     81c:	88 23       	and	r24, r24
     81e:	31 f6       	brne	.-116    	; 0x7ac <Write_M+0x56>
		u8 colb_M[]={0,1,0,0,0,0,0,0};
     820:	88 e0       	ldi	r24, 0x08	; 8
     822:	fe 01       	movw	r30, r28
     824:	be 96       	adiw	r30, 0x2e	; 46
     826:	df 01       	movw	r26, r30
     828:	98 2f       	mov	r25, r24
     82a:	1d 92       	st	X+, r1
     82c:	9a 95       	dec	r25
     82e:	e9 f7       	brne	.-6      	; 0x82a <Write_M+0xd4>
     830:	81 e0       	ldi	r24, 0x01	; 1
     832:	8f a7       	std	Y+47, r24	; 0x2f
		u8 rowb_M[]={0,1,0,0,0,0,0,0};
     834:	88 e0       	ldi	r24, 0x08	; 8
     836:	fe 01       	movw	r30, r28
     838:	f6 96       	adiw	r30, 0x36	; 54
     83a:	df 01       	movw	r26, r30
     83c:	98 2f       	mov	r25, r24
     83e:	1d 92       	st	X+, r1
     840:	9a 95       	dec	r25
     842:	e9 f7       	brne	.-6      	; 0x83e <Write_M+0xe8>
     844:	81 e0       	ldi	r24, 0x01	; 1
     846:	8f ab       	std	Y+55, r24	; 0x37
		u8 colc_M[]={0,0,1,0,0,0,0,0};
     848:	88 e0       	ldi	r24, 0x08	; 8
     84a:	fe 01       	movw	r30, r28
     84c:	fe 96       	adiw	r30, 0x3e	; 62
     84e:	df 01       	movw	r26, r30
     850:	98 2f       	mov	r25, r24
     852:	1d 92       	st	X+, r1
     854:	9a 95       	dec	r25
     856:	e9 f7       	brne	.-6      	; 0x852 <Write_M+0xfc>
     858:	81 e0       	ldi	r24, 0x01	; 1
     85a:	fe 01       	movw	r30, r28
     85c:	e0 5c       	subi	r30, 0xC0	; 192
     85e:	ff 4f       	sbci	r31, 0xFF	; 255
     860:	80 83       	st	Z, r24
		u8 rowc_M[]={0,0,1,0,0,0,0,0};
     862:	ce 01       	movw	r24, r28
     864:	8a 5b       	subi	r24, 0xBA	; 186
     866:	9f 4f       	sbci	r25, 0xFF	; 255
     868:	28 e0       	ldi	r18, 0x08	; 8
     86a:	fc 01       	movw	r30, r24
     86c:	df 01       	movw	r26, r30
     86e:	82 2f       	mov	r24, r18
     870:	1d 92       	st	X+, r1
     872:	8a 95       	dec	r24
     874:	e9 f7       	brne	.-6      	; 0x870 <__stack+0x11>
     876:	fe 01       	movw	r30, r28
     878:	ea 5b       	subi	r30, 0xBA	; 186
     87a:	ff 4f       	sbci	r31, 0xFF	; 255
     87c:	81 e0       	ldi	r24, 0x01	; 1
     87e:	82 83       	std	Z+2, r24	; 0x02
		u8 cold_M[]={0,0,0,1,0,0,0,0};
     880:	ce 01       	movw	r24, r28
     882:	82 5b       	subi	r24, 0xB2	; 178
     884:	9f 4f       	sbci	r25, 0xFF	; 255
     886:	28 e0       	ldi	r18, 0x08	; 8
     888:	fc 01       	movw	r30, r24
     88a:	df 01       	movw	r26, r30
     88c:	82 2f       	mov	r24, r18
     88e:	1d 92       	st	X+, r1
     890:	8a 95       	dec	r24
     892:	e9 f7       	brne	.-6      	; 0x88e <__stack+0x2f>
     894:	fe 01       	movw	r30, r28
     896:	e2 5b       	subi	r30, 0xB2	; 178
     898:	ff 4f       	sbci	r31, 0xFF	; 255
     89a:	81 e0       	ldi	r24, 0x01	; 1
     89c:	83 83       	std	Z+3, r24	; 0x03
		u8 rowd_M[]={0,0,0,1,0,0,0,0};
     89e:	ce 01       	movw	r24, r28
     8a0:	8a 5a       	subi	r24, 0xAA	; 170
     8a2:	9f 4f       	sbci	r25, 0xFF	; 255
     8a4:	28 e0       	ldi	r18, 0x08	; 8
     8a6:	fc 01       	movw	r30, r24
     8a8:	df 01       	movw	r26, r30
     8aa:	82 2f       	mov	r24, r18
     8ac:	1d 92       	st	X+, r1
     8ae:	8a 95       	dec	r24
     8b0:	e9 f7       	brne	.-6      	; 0x8ac <__stack+0x4d>
     8b2:	fe 01       	movw	r30, r28
     8b4:	ea 5a       	subi	r30, 0xAA	; 170
     8b6:	ff 4f       	sbci	r31, 0xFF	; 255
     8b8:	81 e0       	ldi	r24, 0x01	; 1
     8ba:	83 83       	std	Z+3, r24	; 0x03
		u8 cole_M[]={0,0,0,0,1,0,0,0};
     8bc:	ce 01       	movw	r24, r28
     8be:	82 5a       	subi	r24, 0xA2	; 162
     8c0:	9f 4f       	sbci	r25, 0xFF	; 255
     8c2:	28 e0       	ldi	r18, 0x08	; 8
     8c4:	fc 01       	movw	r30, r24
     8c6:	df 01       	movw	r26, r30
     8c8:	82 2f       	mov	r24, r18
     8ca:	1d 92       	st	X+, r1
     8cc:	8a 95       	dec	r24
     8ce:	e9 f7       	brne	.-6      	; 0x8ca <__stack+0x6b>
     8d0:	fe 01       	movw	r30, r28
     8d2:	e2 5a       	subi	r30, 0xA2	; 162
     8d4:	ff 4f       	sbci	r31, 0xFF	; 255
     8d6:	81 e0       	ldi	r24, 0x01	; 1
     8d8:	84 83       	std	Z+4, r24	; 0x04
		u8 rowe_M[]={0,0,1,0,0,0,0,0};
     8da:	ce 01       	movw	r24, r28
     8dc:	8a 59       	subi	r24, 0x9A	; 154
     8de:	9f 4f       	sbci	r25, 0xFF	; 255
     8e0:	28 e0       	ldi	r18, 0x08	; 8
     8e2:	fc 01       	movw	r30, r24
     8e4:	df 01       	movw	r26, r30
     8e6:	82 2f       	mov	r24, r18
     8e8:	1d 92       	st	X+, r1
     8ea:	8a 95       	dec	r24
     8ec:	e9 f7       	brne	.-6      	; 0x8e8 <__stack+0x89>
     8ee:	fe 01       	movw	r30, r28
     8f0:	ea 59       	subi	r30, 0x9A	; 154
     8f2:	ff 4f       	sbci	r31, 0xFF	; 255
     8f4:	81 e0       	ldi	r24, 0x01	; 1
     8f6:	82 83       	std	Z+2, r24	; 0x02
		u8 colf_M[]={0,0,0,0,0,1,0,0};
     8f8:	ce 01       	movw	r24, r28
     8fa:	82 59       	subi	r24, 0x92	; 146
     8fc:	9f 4f       	sbci	r25, 0xFF	; 255
     8fe:	28 e0       	ldi	r18, 0x08	; 8
     900:	fc 01       	movw	r30, r24
     902:	df 01       	movw	r26, r30
     904:	82 2f       	mov	r24, r18
     906:	1d 92       	st	X+, r1
     908:	8a 95       	dec	r24
     90a:	e9 f7       	brne	.-6      	; 0x906 <__stack+0xa7>
     90c:	fe 01       	movw	r30, r28
     90e:	e2 59       	subi	r30, 0x92	; 146
     910:	ff 4f       	sbci	r31, 0xFF	; 255
     912:	81 e0       	ldi	r24, 0x01	; 1
     914:	85 83       	std	Z+5, r24	; 0x05
		u8 rowf_M[]={0,1,0,0,0,0,0,0};
     916:	ce 01       	movw	r24, r28
     918:	8a 58       	subi	r24, 0x8A	; 138
     91a:	9f 4f       	sbci	r25, 0xFF	; 255
     91c:	28 e0       	ldi	r18, 0x08	; 8
     91e:	fc 01       	movw	r30, r24
     920:	df 01       	movw	r26, r30
     922:	82 2f       	mov	r24, r18
     924:	1d 92       	st	X+, r1
     926:	8a 95       	dec	r24
     928:	e9 f7       	brne	.-6      	; 0x924 <__stack+0xc5>
     92a:	fe 01       	movw	r30, r28
     92c:	ea 58       	subi	r30, 0x8A	; 138
     92e:	ff 4f       	sbci	r31, 0xFF	; 255
     930:	81 e0       	ldi	r24, 0x01	; 1
     932:	81 83       	std	Z+1, r24	; 0x01
		u8 colg_M[]={0,0,0,0,0,0,1,0};
     934:	ce 01       	movw	r24, r28
     936:	82 58       	subi	r24, 0x82	; 130
     938:	9f 4f       	sbci	r25, 0xFF	; 255
     93a:	28 e0       	ldi	r18, 0x08	; 8
     93c:	fc 01       	movw	r30, r24
     93e:	df 01       	movw	r26, r30
     940:	82 2f       	mov	r24, r18
     942:	1d 92       	st	X+, r1
     944:	8a 95       	dec	r24
     946:	e9 f7       	brne	.-6      	; 0x942 <__stack+0xe3>
     948:	fe 01       	movw	r30, r28
     94a:	e2 58       	subi	r30, 0x82	; 130
     94c:	ff 4f       	sbci	r31, 0xFF	; 255
     94e:	81 e0       	ldi	r24, 0x01	; 1
     950:	86 83       	std	Z+6, r24	; 0x06
		u8 rowg_M[]={1,1,1,1,1,1,1,1};
     952:	ce 01       	movw	r24, r28
     954:	8a 57       	subi	r24, 0x7A	; 122
     956:	9f 4f       	sbci	r25, 0xFF	; 255
     958:	cf 55       	subi	r28, 0x5F	; 95
     95a:	df 4f       	sbci	r29, 0xFF	; 255
     95c:	99 83       	std	Y+1, r25	; 0x01
     95e:	88 83       	st	Y, r24
     960:	c1 5a       	subi	r28, 0xA1	; 161
     962:	d0 40       	sbci	r29, 0x00	; 0
     964:	ab e8       	ldi	r26, 0x8B	; 139
     966:	b0 e0       	ldi	r27, 0x00	; 0
     968:	cd 55       	subi	r28, 0x5D	; 93
     96a:	df 4f       	sbci	r29, 0xFF	; 255
     96c:	b9 83       	std	Y+1, r27	; 0x01
     96e:	a8 83       	st	Y, r26
     970:	c3 5a       	subi	r28, 0xA3	; 163
     972:	d0 40       	sbci	r29, 0x00	; 0
     974:	b8 e0       	ldi	r27, 0x08	; 8
     976:	cb 55       	subi	r28, 0x5B	; 91
     978:	df 4f       	sbci	r29, 0xFF	; 255
     97a:	b8 83       	st	Y, r27
     97c:	c5 5a       	subi	r28, 0xA5	; 165
     97e:	d0 40       	sbci	r29, 0x00	; 0
     980:	cd 55       	subi	r28, 0x5D	; 93
     982:	df 4f       	sbci	r29, 0xFF	; 255
     984:	e8 81       	ld	r30, Y
     986:	f9 81       	ldd	r31, Y+1	; 0x01
     988:	c3 5a       	subi	r28, 0xA3	; 163
     98a:	d0 40       	sbci	r29, 0x00	; 0
     98c:	00 80       	ld	r0, Z
     98e:	cd 55       	subi	r28, 0x5D	; 93
     990:	df 4f       	sbci	r29, 0xFF	; 255
     992:	88 81       	ld	r24, Y
     994:	99 81       	ldd	r25, Y+1	; 0x01
     996:	c3 5a       	subi	r28, 0xA3	; 163
     998:	d0 40       	sbci	r29, 0x00	; 0
     99a:	01 96       	adiw	r24, 0x01	; 1
     99c:	cd 55       	subi	r28, 0x5D	; 93
     99e:	df 4f       	sbci	r29, 0xFF	; 255
     9a0:	99 83       	std	Y+1, r25	; 0x01
     9a2:	88 83       	st	Y, r24
     9a4:	c3 5a       	subi	r28, 0xA3	; 163
     9a6:	d0 40       	sbci	r29, 0x00	; 0
     9a8:	cf 55       	subi	r28, 0x5F	; 95
     9aa:	df 4f       	sbci	r29, 0xFF	; 255
     9ac:	a8 81       	ld	r26, Y
     9ae:	b9 81       	ldd	r27, Y+1	; 0x01
     9b0:	c1 5a       	subi	r28, 0xA1	; 161
     9b2:	d0 40       	sbci	r29, 0x00	; 0
     9b4:	0c 92       	st	X, r0
     9b6:	cf 55       	subi	r28, 0x5F	; 95
     9b8:	df 4f       	sbci	r29, 0xFF	; 255
     9ba:	e8 81       	ld	r30, Y
     9bc:	f9 81       	ldd	r31, Y+1	; 0x01
     9be:	c1 5a       	subi	r28, 0xA1	; 161
     9c0:	d0 40       	sbci	r29, 0x00	; 0
     9c2:	31 96       	adiw	r30, 0x01	; 1
     9c4:	cf 55       	subi	r28, 0x5F	; 95
     9c6:	df 4f       	sbci	r29, 0xFF	; 255
     9c8:	f9 83       	std	Y+1, r31	; 0x01
     9ca:	e8 83       	st	Y, r30
     9cc:	c1 5a       	subi	r28, 0xA1	; 161
     9ce:	d0 40       	sbci	r29, 0x00	; 0
     9d0:	cb 55       	subi	r28, 0x5B	; 91
     9d2:	df 4f       	sbci	r29, 0xFF	; 255
     9d4:	f8 81       	ld	r31, Y
     9d6:	c5 5a       	subi	r28, 0xA5	; 165
     9d8:	d0 40       	sbci	r29, 0x00	; 0
     9da:	f1 50       	subi	r31, 0x01	; 1
     9dc:	cb 55       	subi	r28, 0x5B	; 91
     9de:	df 4f       	sbci	r29, 0xFF	; 255
     9e0:	f8 83       	st	Y, r31
     9e2:	c5 5a       	subi	r28, 0xA5	; 165
     9e4:	d0 40       	sbci	r29, 0x00	; 0
     9e6:	cb 55       	subi	r28, 0x5B	; 91
     9e8:	df 4f       	sbci	r29, 0xFF	; 255
     9ea:	88 81       	ld	r24, Y
     9ec:	c5 5a       	subi	r28, 0xA5	; 165
     9ee:	d0 40       	sbci	r29, 0x00	; 0
     9f0:	88 23       	and	r24, r24
     9f2:	31 f6       	brne	.-116    	; 0x980 <__stack+0x121>

		u8 x =  30;
     9f4:	8e e1       	ldi	r24, 0x1E	; 30
     9f6:	8d 8f       	std	Y+29, r24	; 0x1d
     9f8:	35 c2       	rjmp	.+1130   	; 0xe64 <__stack+0x605>
		while(x)
	{

	cols(cola_M);
     9fa:	ce 01       	movw	r24, r28
     9fc:	4e 96       	adiw	r24, 0x1e	; 30
     9fe:	0e 94 77 15 	call	0x2aee	; 0x2aee <cols>
	rows(rowa_M);
     a02:	ce 01       	movw	r24, r28
     a04:	86 96       	adiw	r24, 0x26	; 38
     a06:	0e 94 18 15 	call	0x2a30	; 0x2a30 <rows>
	DIO_u8WritePinVal(latch,1);
     a0a:	83 e1       	ldi	r24, 0x13	; 19
     a0c:	61 e0       	ldi	r22, 0x01	; 1
     a0e:	0e 94 cd 00 	call	0x19a	; 0x19a <DIO_u8WritePinVal>
	DELAY(10);
     a12:	8a e0       	ldi	r24, 0x0A	; 10
     a14:	90 e0       	ldi	r25, 0x00	; 0
     a16:	9a 8f       	std	Y+26, r25	; 0x1a
     a18:	89 8f       	std	Y+25, r24	; 0x19
     a1a:	1f c0       	rjmp	.+62     	; 0xa5a <__stack+0x1fb>
     a1c:	88 e2       	ldi	r24, 0x28	; 40
     a1e:	9a e0       	ldi	r25, 0x0A	; 10
     a20:	9c 8f       	std	Y+28, r25	; 0x1c
     a22:	8b 8f       	std	Y+27, r24	; 0x1b
     a24:	c5 56       	subi	r28, 0x65	; 101
     a26:	df 4f       	sbci	r29, 0xFF	; 255
     a28:	18 82       	st	Y, r1
     a2a:	cb 59       	subi	r28, 0x9B	; 155
     a2c:	d0 40       	sbci	r29, 0x00	; 0
     a2e:	8b 8d       	ldd	r24, Y+27	; 0x1b
     a30:	9c 8d       	ldd	r25, Y+28	; 0x1c
     a32:	00 97       	sbiw	r24, 0x00	; 0
     a34:	31 f0       	breq	.+12     	; 0xa42 <__stack+0x1e3>
     a36:	91 e0       	ldi	r25, 0x01	; 1
     a38:	c5 56       	subi	r28, 0x65	; 101
     a3a:	df 4f       	sbci	r29, 0xFF	; 255
     a3c:	98 83       	st	Y, r25
     a3e:	cb 59       	subi	r28, 0x9B	; 155
     a40:	d0 40       	sbci	r29, 0x00	; 0
     a42:	8b 8d       	ldd	r24, Y+27	; 0x1b
     a44:	9c 8d       	ldd	r25, Y+28	; 0x1c
     a46:	01 97       	sbiw	r24, 0x01	; 1
     a48:	9c 8f       	std	Y+28, r25	; 0x1c
     a4a:	8b 8f       	std	Y+27, r24	; 0x1b
     a4c:	c5 56       	subi	r28, 0x65	; 101
     a4e:	df 4f       	sbci	r29, 0xFF	; 255
     a50:	a8 81       	ld	r26, Y
     a52:	cb 59       	subi	r28, 0x9B	; 155
     a54:	d0 40       	sbci	r29, 0x00	; 0
     a56:	aa 23       	and	r26, r26
     a58:	29 f7       	brne	.-54     	; 0xa24 <__stack+0x1c5>
     a5a:	c6 56       	subi	r28, 0x66	; 102
     a5c:	df 4f       	sbci	r29, 0xFF	; 255
     a5e:	18 82       	st	Y, r1
     a60:	ca 59       	subi	r28, 0x9A	; 154
     a62:	d0 40       	sbci	r29, 0x00	; 0
     a64:	89 8d       	ldd	r24, Y+25	; 0x19
     a66:	9a 8d       	ldd	r25, Y+26	; 0x1a
     a68:	00 97       	sbiw	r24, 0x00	; 0
     a6a:	31 f0       	breq	.+12     	; 0xa78 <__stack+0x219>
     a6c:	b1 e0       	ldi	r27, 0x01	; 1
     a6e:	c6 56       	subi	r28, 0x66	; 102
     a70:	df 4f       	sbci	r29, 0xFF	; 255
     a72:	b8 83       	st	Y, r27
     a74:	ca 59       	subi	r28, 0x9A	; 154
     a76:	d0 40       	sbci	r29, 0x00	; 0
     a78:	89 8d       	ldd	r24, Y+25	; 0x19
     a7a:	9a 8d       	ldd	r25, Y+26	; 0x1a
     a7c:	01 97       	sbiw	r24, 0x01	; 1
     a7e:	9a 8f       	std	Y+26, r25	; 0x1a
     a80:	89 8f       	std	Y+25, r24	; 0x19
     a82:	c6 56       	subi	r28, 0x66	; 102
     a84:	df 4f       	sbci	r29, 0xFF	; 255
     a86:	e8 81       	ld	r30, Y
     a88:	ca 59       	subi	r28, 0x9A	; 154
     a8a:	d0 40       	sbci	r29, 0x00	; 0
     a8c:	ee 23       	and	r30, r30
     a8e:	31 f6       	brne	.-116    	; 0xa1c <__stack+0x1bd>
	DIO_u8WritePinVal(latch,0);
     a90:	83 e1       	ldi	r24, 0x13	; 19
     a92:	60 e0       	ldi	r22, 0x00	; 0
     a94:	0e 94 cd 00 	call	0x19a	; 0x19a <DIO_u8WritePinVal>

	cols(colb_M);
     a98:	ce 01       	movw	r24, r28
     a9a:	8e 96       	adiw	r24, 0x2e	; 46
     a9c:	0e 94 77 15 	call	0x2aee	; 0x2aee <cols>
	rows(rowb_M);
     aa0:	ce 01       	movw	r24, r28
     aa2:	c6 96       	adiw	r24, 0x36	; 54
     aa4:	0e 94 18 15 	call	0x2a30	; 0x2a30 <rows>
	DIO_u8WritePinVal(latch,1);
     aa8:	83 e1       	ldi	r24, 0x13	; 19
     aaa:	61 e0       	ldi	r22, 0x01	; 1
     aac:	0e 94 cd 00 	call	0x19a	; 0x19a <DIO_u8WritePinVal>
	DELAY(10);
     ab0:	8a e0       	ldi	r24, 0x0A	; 10
     ab2:	90 e0       	ldi	r25, 0x00	; 0
     ab4:	9e 8b       	std	Y+22, r25	; 0x16
     ab6:	8d 8b       	std	Y+21, r24	; 0x15
     ab8:	1f c0       	rjmp	.+62     	; 0xaf8 <__stack+0x299>
     aba:	88 e2       	ldi	r24, 0x28	; 40
     abc:	9a e0       	ldi	r25, 0x0A	; 10
     abe:	98 8f       	std	Y+24, r25	; 0x18
     ac0:	8f 8b       	std	Y+23, r24	; 0x17
     ac2:	c7 56       	subi	r28, 0x67	; 103
     ac4:	df 4f       	sbci	r29, 0xFF	; 255
     ac6:	18 82       	st	Y, r1
     ac8:	c9 59       	subi	r28, 0x99	; 153
     aca:	d0 40       	sbci	r29, 0x00	; 0
     acc:	8f 89       	ldd	r24, Y+23	; 0x17
     ace:	98 8d       	ldd	r25, Y+24	; 0x18
     ad0:	00 97       	sbiw	r24, 0x00	; 0
     ad2:	31 f0       	breq	.+12     	; 0xae0 <__stack+0x281>
     ad4:	f1 e0       	ldi	r31, 0x01	; 1
     ad6:	c7 56       	subi	r28, 0x67	; 103
     ad8:	df 4f       	sbci	r29, 0xFF	; 255
     ada:	f8 83       	st	Y, r31
     adc:	c9 59       	subi	r28, 0x99	; 153
     ade:	d0 40       	sbci	r29, 0x00	; 0
     ae0:	8f 89       	ldd	r24, Y+23	; 0x17
     ae2:	98 8d       	ldd	r25, Y+24	; 0x18
     ae4:	01 97       	sbiw	r24, 0x01	; 1
     ae6:	98 8f       	std	Y+24, r25	; 0x18
     ae8:	8f 8b       	std	Y+23, r24	; 0x17
     aea:	c7 56       	subi	r28, 0x67	; 103
     aec:	df 4f       	sbci	r29, 0xFF	; 255
     aee:	88 81       	ld	r24, Y
     af0:	c9 59       	subi	r28, 0x99	; 153
     af2:	d0 40       	sbci	r29, 0x00	; 0
     af4:	88 23       	and	r24, r24
     af6:	29 f7       	brne	.-54     	; 0xac2 <__stack+0x263>
     af8:	c8 56       	subi	r28, 0x68	; 104
     afa:	df 4f       	sbci	r29, 0xFF	; 255
     afc:	18 82       	st	Y, r1
     afe:	c8 59       	subi	r28, 0x98	; 152
     b00:	d0 40       	sbci	r29, 0x00	; 0
     b02:	8d 89       	ldd	r24, Y+21	; 0x15
     b04:	9e 89       	ldd	r25, Y+22	; 0x16
     b06:	00 97       	sbiw	r24, 0x00	; 0
     b08:	31 f0       	breq	.+12     	; 0xb16 <__stack+0x2b7>
     b0a:	91 e0       	ldi	r25, 0x01	; 1
     b0c:	c8 56       	subi	r28, 0x68	; 104
     b0e:	df 4f       	sbci	r29, 0xFF	; 255
     b10:	98 83       	st	Y, r25
     b12:	c8 59       	subi	r28, 0x98	; 152
     b14:	d0 40       	sbci	r29, 0x00	; 0
     b16:	8d 89       	ldd	r24, Y+21	; 0x15
     b18:	9e 89       	ldd	r25, Y+22	; 0x16
     b1a:	01 97       	sbiw	r24, 0x01	; 1
     b1c:	9e 8b       	std	Y+22, r25	; 0x16
     b1e:	8d 8b       	std	Y+21, r24	; 0x15
     b20:	c8 56       	subi	r28, 0x68	; 104
     b22:	df 4f       	sbci	r29, 0xFF	; 255
     b24:	a8 81       	ld	r26, Y
     b26:	c8 59       	subi	r28, 0x98	; 152
     b28:	d0 40       	sbci	r29, 0x00	; 0
     b2a:	aa 23       	and	r26, r26
     b2c:	31 f6       	brne	.-116    	; 0xaba <__stack+0x25b>
	DIO_u8WritePinVal(latch,0);
     b2e:	83 e1       	ldi	r24, 0x13	; 19
     b30:	60 e0       	ldi	r22, 0x00	; 0
     b32:	0e 94 cd 00 	call	0x19a	; 0x19a <DIO_u8WritePinVal>

	cols(colc_M);
     b36:	ce 01       	movw	r24, r28
     b38:	ce 96       	adiw	r24, 0x3e	; 62
     b3a:	0e 94 77 15 	call	0x2aee	; 0x2aee <cols>
	rows(rowc_M);
     b3e:	ce 01       	movw	r24, r28
     b40:	8a 5b       	subi	r24, 0xBA	; 186
     b42:	9f 4f       	sbci	r25, 0xFF	; 255
     b44:	0e 94 18 15 	call	0x2a30	; 0x2a30 <rows>
	DIO_u8WritePinVal(latch,1);
     b48:	83 e1       	ldi	r24, 0x13	; 19
     b4a:	61 e0       	ldi	r22, 0x01	; 1
     b4c:	0e 94 cd 00 	call	0x19a	; 0x19a <DIO_u8WritePinVal>
	DELAY(10);
     b50:	8a e0       	ldi	r24, 0x0A	; 10
     b52:	90 e0       	ldi	r25, 0x00	; 0
     b54:	9a 8b       	std	Y+18, r25	; 0x12
     b56:	89 8b       	std	Y+17, r24	; 0x11
     b58:	1f c0       	rjmp	.+62     	; 0xb98 <__stack+0x339>
     b5a:	88 e2       	ldi	r24, 0x28	; 40
     b5c:	9a e0       	ldi	r25, 0x0A	; 10
     b5e:	9c 8b       	std	Y+20, r25	; 0x14
     b60:	8b 8b       	std	Y+19, r24	; 0x13
     b62:	c9 56       	subi	r28, 0x69	; 105
     b64:	df 4f       	sbci	r29, 0xFF	; 255
     b66:	18 82       	st	Y, r1
     b68:	c7 59       	subi	r28, 0x97	; 151
     b6a:	d0 40       	sbci	r29, 0x00	; 0
     b6c:	8b 89       	ldd	r24, Y+19	; 0x13
     b6e:	9c 89       	ldd	r25, Y+20	; 0x14
     b70:	00 97       	sbiw	r24, 0x00	; 0
     b72:	31 f0       	breq	.+12     	; 0xb80 <__stack+0x321>
     b74:	b1 e0       	ldi	r27, 0x01	; 1
     b76:	c9 56       	subi	r28, 0x69	; 105
     b78:	df 4f       	sbci	r29, 0xFF	; 255
     b7a:	b8 83       	st	Y, r27
     b7c:	c7 59       	subi	r28, 0x97	; 151
     b7e:	d0 40       	sbci	r29, 0x00	; 0
     b80:	8b 89       	ldd	r24, Y+19	; 0x13
     b82:	9c 89       	ldd	r25, Y+20	; 0x14
     b84:	01 97       	sbiw	r24, 0x01	; 1
     b86:	9c 8b       	std	Y+20, r25	; 0x14
     b88:	8b 8b       	std	Y+19, r24	; 0x13
     b8a:	c9 56       	subi	r28, 0x69	; 105
     b8c:	df 4f       	sbci	r29, 0xFF	; 255
     b8e:	e8 81       	ld	r30, Y
     b90:	c7 59       	subi	r28, 0x97	; 151
     b92:	d0 40       	sbci	r29, 0x00	; 0
     b94:	ee 23       	and	r30, r30
     b96:	29 f7       	brne	.-54     	; 0xb62 <__stack+0x303>
     b98:	ca 56       	subi	r28, 0x6A	; 106
     b9a:	df 4f       	sbci	r29, 0xFF	; 255
     b9c:	18 82       	st	Y, r1
     b9e:	c6 59       	subi	r28, 0x96	; 150
     ba0:	d0 40       	sbci	r29, 0x00	; 0
     ba2:	89 89       	ldd	r24, Y+17	; 0x11
     ba4:	9a 89       	ldd	r25, Y+18	; 0x12
     ba6:	00 97       	sbiw	r24, 0x00	; 0
     ba8:	31 f0       	breq	.+12     	; 0xbb6 <__stack+0x357>
     baa:	f1 e0       	ldi	r31, 0x01	; 1
     bac:	ca 56       	subi	r28, 0x6A	; 106
     bae:	df 4f       	sbci	r29, 0xFF	; 255
     bb0:	f8 83       	st	Y, r31
     bb2:	c6 59       	subi	r28, 0x96	; 150
     bb4:	d0 40       	sbci	r29, 0x00	; 0
     bb6:	89 89       	ldd	r24, Y+17	; 0x11
     bb8:	9a 89       	ldd	r25, Y+18	; 0x12
     bba:	01 97       	sbiw	r24, 0x01	; 1
     bbc:	9a 8b       	std	Y+18, r25	; 0x12
     bbe:	89 8b       	std	Y+17, r24	; 0x11
     bc0:	ca 56       	subi	r28, 0x6A	; 106
     bc2:	df 4f       	sbci	r29, 0xFF	; 255
     bc4:	88 81       	ld	r24, Y
     bc6:	c6 59       	subi	r28, 0x96	; 150
     bc8:	d0 40       	sbci	r29, 0x00	; 0
     bca:	88 23       	and	r24, r24
     bcc:	31 f6       	brne	.-116    	; 0xb5a <__stack+0x2fb>
	DIO_u8WritePinVal(latch,0);
     bce:	83 e1       	ldi	r24, 0x13	; 19
     bd0:	60 e0       	ldi	r22, 0x00	; 0
     bd2:	0e 94 cd 00 	call	0x19a	; 0x19a <DIO_u8WritePinVal>

	cols(cold_M);
     bd6:	ce 01       	movw	r24, r28
     bd8:	82 5b       	subi	r24, 0xB2	; 178
     bda:	9f 4f       	sbci	r25, 0xFF	; 255
     bdc:	0e 94 77 15 	call	0x2aee	; 0x2aee <cols>
	rows(rowd_M);
     be0:	ce 01       	movw	r24, r28
     be2:	8a 5a       	subi	r24, 0xAA	; 170
     be4:	9f 4f       	sbci	r25, 0xFF	; 255
     be6:	0e 94 18 15 	call	0x2a30	; 0x2a30 <rows>
	DIO_u8WritePinVal(latch,1);
     bea:	83 e1       	ldi	r24, 0x13	; 19
     bec:	61 e0       	ldi	r22, 0x01	; 1
     bee:	0e 94 cd 00 	call	0x19a	; 0x19a <DIO_u8WritePinVal>
	DELAY(10);
     bf2:	8a e0       	ldi	r24, 0x0A	; 10
     bf4:	90 e0       	ldi	r25, 0x00	; 0
     bf6:	9e 87       	std	Y+14, r25	; 0x0e
     bf8:	8d 87       	std	Y+13, r24	; 0x0d
     bfa:	1f c0       	rjmp	.+62     	; 0xc3a <__stack+0x3db>
     bfc:	88 e2       	ldi	r24, 0x28	; 40
     bfe:	9a e0       	ldi	r25, 0x0A	; 10
     c00:	98 8b       	std	Y+16, r25	; 0x10
     c02:	8f 87       	std	Y+15, r24	; 0x0f
     c04:	cb 56       	subi	r28, 0x6B	; 107
     c06:	df 4f       	sbci	r29, 0xFF	; 255
     c08:	18 82       	st	Y, r1
     c0a:	c5 59       	subi	r28, 0x95	; 149
     c0c:	d0 40       	sbci	r29, 0x00	; 0
     c0e:	8f 85       	ldd	r24, Y+15	; 0x0f
     c10:	98 89       	ldd	r25, Y+16	; 0x10
     c12:	00 97       	sbiw	r24, 0x00	; 0
     c14:	31 f0       	breq	.+12     	; 0xc22 <__stack+0x3c3>
     c16:	91 e0       	ldi	r25, 0x01	; 1
     c18:	cb 56       	subi	r28, 0x6B	; 107
     c1a:	df 4f       	sbci	r29, 0xFF	; 255
     c1c:	98 83       	st	Y, r25
     c1e:	c5 59       	subi	r28, 0x95	; 149
     c20:	d0 40       	sbci	r29, 0x00	; 0
     c22:	8f 85       	ldd	r24, Y+15	; 0x0f
     c24:	98 89       	ldd	r25, Y+16	; 0x10
     c26:	01 97       	sbiw	r24, 0x01	; 1
     c28:	98 8b       	std	Y+16, r25	; 0x10
     c2a:	8f 87       	std	Y+15, r24	; 0x0f
     c2c:	cb 56       	subi	r28, 0x6B	; 107
     c2e:	df 4f       	sbci	r29, 0xFF	; 255
     c30:	a8 81       	ld	r26, Y
     c32:	c5 59       	subi	r28, 0x95	; 149
     c34:	d0 40       	sbci	r29, 0x00	; 0
     c36:	aa 23       	and	r26, r26
     c38:	29 f7       	brne	.-54     	; 0xc04 <__stack+0x3a5>
     c3a:	cc 56       	subi	r28, 0x6C	; 108
     c3c:	df 4f       	sbci	r29, 0xFF	; 255
     c3e:	18 82       	st	Y, r1
     c40:	c4 59       	subi	r28, 0x94	; 148
     c42:	d0 40       	sbci	r29, 0x00	; 0
     c44:	8d 85       	ldd	r24, Y+13	; 0x0d
     c46:	9e 85       	ldd	r25, Y+14	; 0x0e
     c48:	00 97       	sbiw	r24, 0x00	; 0
     c4a:	31 f0       	breq	.+12     	; 0xc58 <__stack+0x3f9>
     c4c:	b1 e0       	ldi	r27, 0x01	; 1
     c4e:	cc 56       	subi	r28, 0x6C	; 108
     c50:	df 4f       	sbci	r29, 0xFF	; 255
     c52:	b8 83       	st	Y, r27
     c54:	c4 59       	subi	r28, 0x94	; 148
     c56:	d0 40       	sbci	r29, 0x00	; 0
     c58:	8d 85       	ldd	r24, Y+13	; 0x0d
     c5a:	9e 85       	ldd	r25, Y+14	; 0x0e
     c5c:	01 97       	sbiw	r24, 0x01	; 1
     c5e:	9e 87       	std	Y+14, r25	; 0x0e
     c60:	8d 87       	std	Y+13, r24	; 0x0d
     c62:	cc 56       	subi	r28, 0x6C	; 108
     c64:	df 4f       	sbci	r29, 0xFF	; 255
     c66:	e8 81       	ld	r30, Y
     c68:	c4 59       	subi	r28, 0x94	; 148
     c6a:	d0 40       	sbci	r29, 0x00	; 0
     c6c:	ee 23       	and	r30, r30
     c6e:	31 f6       	brne	.-116    	; 0xbfc <__stack+0x39d>
	DIO_u8WritePinVal(latch,0);
     c70:	83 e1       	ldi	r24, 0x13	; 19
     c72:	60 e0       	ldi	r22, 0x00	; 0
     c74:	0e 94 cd 00 	call	0x19a	; 0x19a <DIO_u8WritePinVal>

	cols(cole_M);
     c78:	ce 01       	movw	r24, r28
     c7a:	82 5a       	subi	r24, 0xA2	; 162
     c7c:	9f 4f       	sbci	r25, 0xFF	; 255
     c7e:	0e 94 77 15 	call	0x2aee	; 0x2aee <cols>
	rows(rowe_M);
     c82:	ce 01       	movw	r24, r28
     c84:	8a 59       	subi	r24, 0x9A	; 154
     c86:	9f 4f       	sbci	r25, 0xFF	; 255
     c88:	0e 94 18 15 	call	0x2a30	; 0x2a30 <rows>
	DIO_u8WritePinVal(latch,1);
     c8c:	83 e1       	ldi	r24, 0x13	; 19
     c8e:	61 e0       	ldi	r22, 0x01	; 1
     c90:	0e 94 cd 00 	call	0x19a	; 0x19a <DIO_u8WritePinVal>
	DELAY(10);
     c94:	8a e0       	ldi	r24, 0x0A	; 10
     c96:	90 e0       	ldi	r25, 0x00	; 0
     c98:	9a 87       	std	Y+10, r25	; 0x0a
     c9a:	89 87       	std	Y+9, r24	; 0x09
     c9c:	1f c0       	rjmp	.+62     	; 0xcdc <__stack+0x47d>
     c9e:	88 e2       	ldi	r24, 0x28	; 40
     ca0:	9a e0       	ldi	r25, 0x0A	; 10
     ca2:	9c 87       	std	Y+12, r25	; 0x0c
     ca4:	8b 87       	std	Y+11, r24	; 0x0b
     ca6:	cd 56       	subi	r28, 0x6D	; 109
     ca8:	df 4f       	sbci	r29, 0xFF	; 255
     caa:	18 82       	st	Y, r1
     cac:	c3 59       	subi	r28, 0x93	; 147
     cae:	d0 40       	sbci	r29, 0x00	; 0
     cb0:	8b 85       	ldd	r24, Y+11	; 0x0b
     cb2:	9c 85       	ldd	r25, Y+12	; 0x0c
     cb4:	00 97       	sbiw	r24, 0x00	; 0
     cb6:	31 f0       	breq	.+12     	; 0xcc4 <__stack+0x465>
     cb8:	f1 e0       	ldi	r31, 0x01	; 1
     cba:	cd 56       	subi	r28, 0x6D	; 109
     cbc:	df 4f       	sbci	r29, 0xFF	; 255
     cbe:	f8 83       	st	Y, r31
     cc0:	c3 59       	subi	r28, 0x93	; 147
     cc2:	d0 40       	sbci	r29, 0x00	; 0
     cc4:	8b 85       	ldd	r24, Y+11	; 0x0b
     cc6:	9c 85       	ldd	r25, Y+12	; 0x0c
     cc8:	01 97       	sbiw	r24, 0x01	; 1
     cca:	9c 87       	std	Y+12, r25	; 0x0c
     ccc:	8b 87       	std	Y+11, r24	; 0x0b
     cce:	cd 56       	subi	r28, 0x6D	; 109
     cd0:	df 4f       	sbci	r29, 0xFF	; 255
     cd2:	88 81       	ld	r24, Y
     cd4:	c3 59       	subi	r28, 0x93	; 147
     cd6:	d0 40       	sbci	r29, 0x00	; 0
     cd8:	88 23       	and	r24, r24
     cda:	29 f7       	brne	.-54     	; 0xca6 <__stack+0x447>
     cdc:	ce 56       	subi	r28, 0x6E	; 110
     cde:	df 4f       	sbci	r29, 0xFF	; 255
     ce0:	18 82       	st	Y, r1
     ce2:	c2 59       	subi	r28, 0x92	; 146
     ce4:	d0 40       	sbci	r29, 0x00	; 0
     ce6:	89 85       	ldd	r24, Y+9	; 0x09
     ce8:	9a 85       	ldd	r25, Y+10	; 0x0a
     cea:	00 97       	sbiw	r24, 0x00	; 0
     cec:	31 f0       	breq	.+12     	; 0xcfa <__stack+0x49b>
     cee:	91 e0       	ldi	r25, 0x01	; 1
     cf0:	ce 56       	subi	r28, 0x6E	; 110
     cf2:	df 4f       	sbci	r29, 0xFF	; 255
     cf4:	98 83       	st	Y, r25
     cf6:	c2 59       	subi	r28, 0x92	; 146
     cf8:	d0 40       	sbci	r29, 0x00	; 0
     cfa:	89 85       	ldd	r24, Y+9	; 0x09
     cfc:	9a 85       	ldd	r25, Y+10	; 0x0a
     cfe:	01 97       	sbiw	r24, 0x01	; 1
     d00:	9a 87       	std	Y+10, r25	; 0x0a
     d02:	89 87       	std	Y+9, r24	; 0x09
     d04:	ce 56       	subi	r28, 0x6E	; 110
     d06:	df 4f       	sbci	r29, 0xFF	; 255
     d08:	a8 81       	ld	r26, Y
     d0a:	c2 59       	subi	r28, 0x92	; 146
     d0c:	d0 40       	sbci	r29, 0x00	; 0
     d0e:	aa 23       	and	r26, r26
     d10:	31 f6       	brne	.-116    	; 0xc9e <__stack+0x43f>
	DIO_u8WritePinVal(latch,0);
     d12:	83 e1       	ldi	r24, 0x13	; 19
     d14:	60 e0       	ldi	r22, 0x00	; 0
     d16:	0e 94 cd 00 	call	0x19a	; 0x19a <DIO_u8WritePinVal>

	cols(colf_M);
     d1a:	ce 01       	movw	r24, r28
     d1c:	82 59       	subi	r24, 0x92	; 146
     d1e:	9f 4f       	sbci	r25, 0xFF	; 255
     d20:	0e 94 77 15 	call	0x2aee	; 0x2aee <cols>
	rows(rowf_M);
     d24:	ce 01       	movw	r24, r28
     d26:	8a 58       	subi	r24, 0x8A	; 138
     d28:	9f 4f       	sbci	r25, 0xFF	; 255
     d2a:	0e 94 18 15 	call	0x2a30	; 0x2a30 <rows>
	DIO_u8WritePinVal(latch,1);
     d2e:	83 e1       	ldi	r24, 0x13	; 19
     d30:	61 e0       	ldi	r22, 0x01	; 1
     d32:	0e 94 cd 00 	call	0x19a	; 0x19a <DIO_u8WritePinVal>
	DELAY(10);
     d36:	8a e0       	ldi	r24, 0x0A	; 10
     d38:	90 e0       	ldi	r25, 0x00	; 0
     d3a:	9e 83       	std	Y+6, r25	; 0x06
     d3c:	8d 83       	std	Y+5, r24	; 0x05
     d3e:	1f c0       	rjmp	.+62     	; 0xd7e <__stack+0x51f>
     d40:	88 e2       	ldi	r24, 0x28	; 40
     d42:	9a e0       	ldi	r25, 0x0A	; 10
     d44:	98 87       	std	Y+8, r25	; 0x08
     d46:	8f 83       	std	Y+7, r24	; 0x07
     d48:	cf 56       	subi	r28, 0x6F	; 111
     d4a:	df 4f       	sbci	r29, 0xFF	; 255
     d4c:	18 82       	st	Y, r1
     d4e:	c1 59       	subi	r28, 0x91	; 145
     d50:	d0 40       	sbci	r29, 0x00	; 0
     d52:	8f 81       	ldd	r24, Y+7	; 0x07
     d54:	98 85       	ldd	r25, Y+8	; 0x08
     d56:	00 97       	sbiw	r24, 0x00	; 0
     d58:	31 f0       	breq	.+12     	; 0xd66 <__stack+0x507>
     d5a:	b1 e0       	ldi	r27, 0x01	; 1
     d5c:	cf 56       	subi	r28, 0x6F	; 111
     d5e:	df 4f       	sbci	r29, 0xFF	; 255
     d60:	b8 83       	st	Y, r27
     d62:	c1 59       	subi	r28, 0x91	; 145
     d64:	d0 40       	sbci	r29, 0x00	; 0
     d66:	8f 81       	ldd	r24, Y+7	; 0x07
     d68:	98 85       	ldd	r25, Y+8	; 0x08
     d6a:	01 97       	sbiw	r24, 0x01	; 1
     d6c:	98 87       	std	Y+8, r25	; 0x08
     d6e:	8f 83       	std	Y+7, r24	; 0x07
     d70:	cf 56       	subi	r28, 0x6F	; 111
     d72:	df 4f       	sbci	r29, 0xFF	; 255
     d74:	e8 81       	ld	r30, Y
     d76:	c1 59       	subi	r28, 0x91	; 145
     d78:	d0 40       	sbci	r29, 0x00	; 0
     d7a:	ee 23       	and	r30, r30
     d7c:	29 f7       	brne	.-54     	; 0xd48 <__stack+0x4e9>
     d7e:	c0 57       	subi	r28, 0x70	; 112
     d80:	df 4f       	sbci	r29, 0xFF	; 255
     d82:	18 82       	st	Y, r1
     d84:	c0 59       	subi	r28, 0x90	; 144
     d86:	d0 40       	sbci	r29, 0x00	; 0
     d88:	8d 81       	ldd	r24, Y+5	; 0x05
     d8a:	9e 81       	ldd	r25, Y+6	; 0x06
     d8c:	00 97       	sbiw	r24, 0x00	; 0
     d8e:	31 f0       	breq	.+12     	; 0xd9c <__stack+0x53d>
     d90:	f1 e0       	ldi	r31, 0x01	; 1
     d92:	c0 57       	subi	r28, 0x70	; 112
     d94:	df 4f       	sbci	r29, 0xFF	; 255
     d96:	f8 83       	st	Y, r31
     d98:	c0 59       	subi	r28, 0x90	; 144
     d9a:	d0 40       	sbci	r29, 0x00	; 0
     d9c:	8d 81       	ldd	r24, Y+5	; 0x05
     d9e:	9e 81       	ldd	r25, Y+6	; 0x06
     da0:	01 97       	sbiw	r24, 0x01	; 1
     da2:	9e 83       	std	Y+6, r25	; 0x06
     da4:	8d 83       	std	Y+5, r24	; 0x05
     da6:	c0 57       	subi	r28, 0x70	; 112
     da8:	df 4f       	sbci	r29, 0xFF	; 255
     daa:	88 81       	ld	r24, Y
     dac:	c0 59       	subi	r28, 0x90	; 144
     dae:	d0 40       	sbci	r29, 0x00	; 0
     db0:	88 23       	and	r24, r24
     db2:	31 f6       	brne	.-116    	; 0xd40 <__stack+0x4e1>
	DIO_u8WritePinVal(latch,0);
     db4:	83 e1       	ldi	r24, 0x13	; 19
     db6:	60 e0       	ldi	r22, 0x00	; 0
     db8:	0e 94 cd 00 	call	0x19a	; 0x19a <DIO_u8WritePinVal>

	cols(colg_M);
     dbc:	ce 01       	movw	r24, r28
     dbe:	82 58       	subi	r24, 0x82	; 130
     dc0:	9f 4f       	sbci	r25, 0xFF	; 255
     dc2:	0e 94 77 15 	call	0x2aee	; 0x2aee <cols>
	rows(rowg_M);
     dc6:	ce 01       	movw	r24, r28
     dc8:	8a 57       	subi	r24, 0x7A	; 122
     dca:	9f 4f       	sbci	r25, 0xFF	; 255
     dcc:	0e 94 18 15 	call	0x2a30	; 0x2a30 <rows>
	DIO_u8WritePinVal(latch,1);
     dd0:	83 e1       	ldi	r24, 0x13	; 19
     dd2:	61 e0       	ldi	r22, 0x01	; 1
     dd4:	0e 94 cd 00 	call	0x19a	; 0x19a <DIO_u8WritePinVal>
	DELAY(10);
     dd8:	8a e0       	ldi	r24, 0x0A	; 10
     dda:	90 e0       	ldi	r25, 0x00	; 0
     ddc:	9a 83       	std	Y+2, r25	; 0x02
     dde:	89 83       	std	Y+1, r24	; 0x01
     de0:	1f c0       	rjmp	.+62     	; 0xe20 <__stack+0x5c1>
     de2:	88 e2       	ldi	r24, 0x28	; 40
     de4:	9a e0       	ldi	r25, 0x0A	; 10
     de6:	9c 83       	std	Y+4, r25	; 0x04
     de8:	8b 83       	std	Y+3, r24	; 0x03
     dea:	c1 57       	subi	r28, 0x71	; 113
     dec:	df 4f       	sbci	r29, 0xFF	; 255
     dee:	18 82       	st	Y, r1
     df0:	cf 58       	subi	r28, 0x8F	; 143
     df2:	d0 40       	sbci	r29, 0x00	; 0
     df4:	8b 81       	ldd	r24, Y+3	; 0x03
     df6:	9c 81       	ldd	r25, Y+4	; 0x04
     df8:	00 97       	sbiw	r24, 0x00	; 0
     dfa:	31 f0       	breq	.+12     	; 0xe08 <__stack+0x5a9>
     dfc:	91 e0       	ldi	r25, 0x01	; 1
     dfe:	c1 57       	subi	r28, 0x71	; 113
     e00:	df 4f       	sbci	r29, 0xFF	; 255
     e02:	98 83       	st	Y, r25
     e04:	cf 58       	subi	r28, 0x8F	; 143
     e06:	d0 40       	sbci	r29, 0x00	; 0
     e08:	8b 81       	ldd	r24, Y+3	; 0x03
     e0a:	9c 81       	ldd	r25, Y+4	; 0x04
     e0c:	01 97       	sbiw	r24, 0x01	; 1
     e0e:	9c 83       	std	Y+4, r25	; 0x04
     e10:	8b 83       	std	Y+3, r24	; 0x03
     e12:	c1 57       	subi	r28, 0x71	; 113
     e14:	df 4f       	sbci	r29, 0xFF	; 255
     e16:	a8 81       	ld	r26, Y
     e18:	cf 58       	subi	r28, 0x8F	; 143
     e1a:	d0 40       	sbci	r29, 0x00	; 0
     e1c:	aa 23       	and	r26, r26
     e1e:	29 f7       	brne	.-54     	; 0xdea <__stack+0x58b>
     e20:	c2 57       	subi	r28, 0x72	; 114
     e22:	df 4f       	sbci	r29, 0xFF	; 255
     e24:	18 82       	st	Y, r1
     e26:	ce 58       	subi	r28, 0x8E	; 142
     e28:	d0 40       	sbci	r29, 0x00	; 0
     e2a:	89 81       	ldd	r24, Y+1	; 0x01
     e2c:	9a 81       	ldd	r25, Y+2	; 0x02
     e2e:	00 97       	sbiw	r24, 0x00	; 0
     e30:	31 f0       	breq	.+12     	; 0xe3e <__stack+0x5df>
     e32:	b1 e0       	ldi	r27, 0x01	; 1
     e34:	c2 57       	subi	r28, 0x72	; 114
     e36:	df 4f       	sbci	r29, 0xFF	; 255
     e38:	b8 83       	st	Y, r27
     e3a:	ce 58       	subi	r28, 0x8E	; 142
     e3c:	d0 40       	sbci	r29, 0x00	; 0
     e3e:	89 81       	ldd	r24, Y+1	; 0x01
     e40:	9a 81       	ldd	r25, Y+2	; 0x02
     e42:	01 97       	sbiw	r24, 0x01	; 1
     e44:	9a 83       	std	Y+2, r25	; 0x02
     e46:	89 83       	std	Y+1, r24	; 0x01
     e48:	c2 57       	subi	r28, 0x72	; 114
     e4a:	df 4f       	sbci	r29, 0xFF	; 255
     e4c:	e8 81       	ld	r30, Y
     e4e:	ce 58       	subi	r28, 0x8E	; 142
     e50:	d0 40       	sbci	r29, 0x00	; 0
     e52:	ee 23       	and	r30, r30
     e54:	31 f6       	brne	.-116    	; 0xde2 <__stack+0x583>
	DIO_u8WritePinVal(latch,0);
     e56:	83 e1       	ldi	r24, 0x13	; 19
     e58:	60 e0       	ldi	r22, 0x00	; 0
     e5a:	0e 94 cd 00 	call	0x19a	; 0x19a <DIO_u8WritePinVal>

	x-- ;
     e5e:	8d 8d       	ldd	r24, Y+29	; 0x1d
     e60:	81 50       	subi	r24, 0x01	; 1
     e62:	8d 8f       	std	Y+29, r24	; 0x1d
		u8 rowf_M[]={0,1,0,0,0,0,0,0};
		u8 colg_M[]={0,0,0,0,0,0,1,0};
		u8 rowg_M[]={1,1,1,1,1,1,1,1};

		u8 x =  30;
		while(x)
     e64:	8d 8d       	ldd	r24, Y+29	; 0x1d
     e66:	88 23       	and	r24, r24
     e68:	09 f0       	breq	.+2      	; 0xe6c <__stack+0x60d>
     e6a:	c7 cd       	rjmp	.-1138   	; 0x9fa <__stack+0x19b>
	DELAY(10);
	DIO_u8WritePinVal(latch,0);

	x-- ;
	}
}
     e6c:	cb 55       	subi	r28, 0x5B	; 91
     e6e:	df 4f       	sbci	r29, 0xFF	; 255
     e70:	0f b6       	in	r0, 0x3f	; 63
     e72:	f8 94       	cli
     e74:	de bf       	out	0x3e, r29	; 62
     e76:	0f be       	out	0x3f, r0	; 63
     e78:	cd bf       	out	0x3d, r28	; 61
     e7a:	cf 91       	pop	r28
     e7c:	df 91       	pop	r29
     e7e:	08 95       	ret

00000e80 <Write_A>:

void Write_A(void)
{
     e80:	df 93       	push	r29
     e82:	cf 93       	push	r28
     e84:	cd b7       	in	r28, 0x3d	; 61
     e86:	de b7       	in	r29, 0x3e	; 62
     e88:	c6 5c       	subi	r28, 0xC6	; 198
     e8a:	d0 40       	sbci	r29, 0x00	; 0
     e8c:	0f b6       	in	r0, 0x3f	; 63
     e8e:	f8 94       	cli
     e90:	de bf       	out	0x3e, r29	; 62
     e92:	0f be       	out	0x3f, r0	; 63
     e94:	cd bf       	out	0x3d, r28	; 61
	//////////////A//////////////////////
			u8 cola_A[]={1,0,0,0,0,0,0,0};
     e96:	88 e0       	ldi	r24, 0x08	; 8
     e98:	fe 01       	movw	r30, r28
     e9a:	b6 96       	adiw	r30, 0x26	; 38
     e9c:	df 01       	movw	r26, r30
     e9e:	98 2f       	mov	r25, r24
     ea0:	1d 92       	st	X+, r1
     ea2:	9a 95       	dec	r25
     ea4:	e9 f7       	brne	.-6      	; 0xea0 <Write_A+0x20>
     ea6:	81 e0       	ldi	r24, 0x01	; 1
     ea8:	8e a3       	std	Y+38, r24	; 0x26
			u8 rowa_A[]={0,0,0,1,1,1,1,1};
     eaa:	de 01       	movw	r26, r28
     eac:	9e 96       	adiw	r26, 0x2e	; 46
     eae:	c8 54       	subi	r28, 0x48	; 72
     eb0:	df 4f       	sbci	r29, 0xFF	; 255
     eb2:	b9 83       	std	Y+1, r27	; 0x01
     eb4:	a8 83       	st	Y, r26
     eb6:	c8 5b       	subi	r28, 0xB8	; 184
     eb8:	d0 40       	sbci	r29, 0x00	; 0
     eba:	eb ea       	ldi	r30, 0xAB	; 171
     ebc:	f0 e0       	ldi	r31, 0x00	; 0
     ebe:	c6 54       	subi	r28, 0x46	; 70
     ec0:	df 4f       	sbci	r29, 0xFF	; 255
     ec2:	f9 83       	std	Y+1, r31	; 0x01
     ec4:	e8 83       	st	Y, r30
     ec6:	ca 5b       	subi	r28, 0xBA	; 186
     ec8:	d0 40       	sbci	r29, 0x00	; 0
     eca:	f8 e0       	ldi	r31, 0x08	; 8
     ecc:	c4 54       	subi	r28, 0x44	; 68
     ece:	df 4f       	sbci	r29, 0xFF	; 255
     ed0:	f8 83       	st	Y, r31
     ed2:	cc 5b       	subi	r28, 0xBC	; 188
     ed4:	d0 40       	sbci	r29, 0x00	; 0
     ed6:	c6 54       	subi	r28, 0x46	; 70
     ed8:	df 4f       	sbci	r29, 0xFF	; 255
     eda:	a8 81       	ld	r26, Y
     edc:	b9 81       	ldd	r27, Y+1	; 0x01
     ede:	ca 5b       	subi	r28, 0xBA	; 186
     ee0:	d0 40       	sbci	r29, 0x00	; 0
     ee2:	0c 90       	ld	r0, X
     ee4:	c6 54       	subi	r28, 0x46	; 70
     ee6:	df 4f       	sbci	r29, 0xFF	; 255
     ee8:	e8 81       	ld	r30, Y
     eea:	f9 81       	ldd	r31, Y+1	; 0x01
     eec:	ca 5b       	subi	r28, 0xBA	; 186
     eee:	d0 40       	sbci	r29, 0x00	; 0
     ef0:	31 96       	adiw	r30, 0x01	; 1
     ef2:	c6 54       	subi	r28, 0x46	; 70
     ef4:	df 4f       	sbci	r29, 0xFF	; 255
     ef6:	f9 83       	std	Y+1, r31	; 0x01
     ef8:	e8 83       	st	Y, r30
     efa:	ca 5b       	subi	r28, 0xBA	; 186
     efc:	d0 40       	sbci	r29, 0x00	; 0
     efe:	c8 54       	subi	r28, 0x48	; 72
     f00:	df 4f       	sbci	r29, 0xFF	; 255
     f02:	a8 81       	ld	r26, Y
     f04:	b9 81       	ldd	r27, Y+1	; 0x01
     f06:	c8 5b       	subi	r28, 0xB8	; 184
     f08:	d0 40       	sbci	r29, 0x00	; 0
     f0a:	0c 92       	st	X, r0
     f0c:	c8 54       	subi	r28, 0x48	; 72
     f0e:	df 4f       	sbci	r29, 0xFF	; 255
     f10:	e8 81       	ld	r30, Y
     f12:	f9 81       	ldd	r31, Y+1	; 0x01
     f14:	c8 5b       	subi	r28, 0xB8	; 184
     f16:	d0 40       	sbci	r29, 0x00	; 0
     f18:	31 96       	adiw	r30, 0x01	; 1
     f1a:	c8 54       	subi	r28, 0x48	; 72
     f1c:	df 4f       	sbci	r29, 0xFF	; 255
     f1e:	f9 83       	std	Y+1, r31	; 0x01
     f20:	e8 83       	st	Y, r30
     f22:	c8 5b       	subi	r28, 0xB8	; 184
     f24:	d0 40       	sbci	r29, 0x00	; 0
     f26:	c4 54       	subi	r28, 0x44	; 68
     f28:	df 4f       	sbci	r29, 0xFF	; 255
     f2a:	f8 81       	ld	r31, Y
     f2c:	cc 5b       	subi	r28, 0xBC	; 188
     f2e:	d0 40       	sbci	r29, 0x00	; 0
     f30:	f1 50       	subi	r31, 0x01	; 1
     f32:	c4 54       	subi	r28, 0x44	; 68
     f34:	df 4f       	sbci	r29, 0xFF	; 255
     f36:	f8 83       	st	Y, r31
     f38:	cc 5b       	subi	r28, 0xBC	; 188
     f3a:	d0 40       	sbci	r29, 0x00	; 0
     f3c:	c4 54       	subi	r28, 0x44	; 68
     f3e:	df 4f       	sbci	r29, 0xFF	; 255
     f40:	88 81       	ld	r24, Y
     f42:	cc 5b       	subi	r28, 0xBC	; 188
     f44:	d0 40       	sbci	r29, 0x00	; 0
     f46:	88 23       	and	r24, r24
     f48:	31 f6       	brne	.-116    	; 0xed6 <Write_A+0x56>
			u8 colb_A[]={0,1,0,0,0,0,0,0};
     f4a:	88 e0       	ldi	r24, 0x08	; 8
     f4c:	fe 01       	movw	r30, r28
     f4e:	f6 96       	adiw	r30, 0x36	; 54
     f50:	df 01       	movw	r26, r30
     f52:	98 2f       	mov	r25, r24
     f54:	1d 92       	st	X+, r1
     f56:	9a 95       	dec	r25
     f58:	e9 f7       	brne	.-6      	; 0xf54 <Write_A+0xd4>
     f5a:	81 e0       	ldi	r24, 0x01	; 1
     f5c:	8f ab       	std	Y+55, r24	; 0x37
			u8 rowb_A[]={0,0,1,0,0,0,0,0};
     f5e:	88 e0       	ldi	r24, 0x08	; 8
     f60:	fe 01       	movw	r30, r28
     f62:	fe 96       	adiw	r30, 0x3e	; 62
     f64:	df 01       	movw	r26, r30
     f66:	98 2f       	mov	r25, r24
     f68:	1d 92       	st	X+, r1
     f6a:	9a 95       	dec	r25
     f6c:	e9 f7       	brne	.-6      	; 0xf68 <Write_A+0xe8>
     f6e:	81 e0       	ldi	r24, 0x01	; 1
     f70:	fe 01       	movw	r30, r28
     f72:	e0 5c       	subi	r30, 0xC0	; 192
     f74:	ff 4f       	sbci	r31, 0xFF	; 255
     f76:	80 83       	st	Z, r24
			u8 colc_A[]={0,0,1,0,0,0,0,0};
     f78:	ce 01       	movw	r24, r28
     f7a:	8a 5b       	subi	r24, 0xBA	; 186
     f7c:	9f 4f       	sbci	r25, 0xFF	; 255
     f7e:	28 e0       	ldi	r18, 0x08	; 8
     f80:	fc 01       	movw	r30, r24
     f82:	df 01       	movw	r26, r30
     f84:	82 2f       	mov	r24, r18
     f86:	1d 92       	st	X+, r1
     f88:	8a 95       	dec	r24
     f8a:	e9 f7       	brne	.-6      	; 0xf86 <Write_A+0x106>
     f8c:	fe 01       	movw	r30, r28
     f8e:	ea 5b       	subi	r30, 0xBA	; 186
     f90:	ff 4f       	sbci	r31, 0xFF	; 255
     f92:	81 e0       	ldi	r24, 0x01	; 1
     f94:	82 83       	std	Z+2, r24	; 0x02
			u8 rowc_A[]={0,1,0,0,0,0,0,0};
     f96:	ce 01       	movw	r24, r28
     f98:	82 5b       	subi	r24, 0xB2	; 178
     f9a:	9f 4f       	sbci	r25, 0xFF	; 255
     f9c:	28 e0       	ldi	r18, 0x08	; 8
     f9e:	fc 01       	movw	r30, r24
     fa0:	df 01       	movw	r26, r30
     fa2:	82 2f       	mov	r24, r18
     fa4:	1d 92       	st	X+, r1
     fa6:	8a 95       	dec	r24
     fa8:	e9 f7       	brne	.-6      	; 0xfa4 <Write_A+0x124>
     faa:	fe 01       	movw	r30, r28
     fac:	e2 5b       	subi	r30, 0xB2	; 178
     fae:	ff 4f       	sbci	r31, 0xFF	; 255
     fb0:	81 e0       	ldi	r24, 0x01	; 1
     fb2:	81 83       	std	Z+1, r24	; 0x01
			u8 cold_A[]={0,0,0,1,0,0,0,0};
     fb4:	ce 01       	movw	r24, r28
     fb6:	8a 5a       	subi	r24, 0xAA	; 170
     fb8:	9f 4f       	sbci	r25, 0xFF	; 255
     fba:	28 e0       	ldi	r18, 0x08	; 8
     fbc:	fc 01       	movw	r30, r24
     fbe:	df 01       	movw	r26, r30
     fc0:	82 2f       	mov	r24, r18
     fc2:	1d 92       	st	X+, r1
     fc4:	8a 95       	dec	r24
     fc6:	e9 f7       	brne	.-6      	; 0xfc2 <Write_A+0x142>
     fc8:	fe 01       	movw	r30, r28
     fca:	ea 5a       	subi	r30, 0xAA	; 170
     fcc:	ff 4f       	sbci	r31, 0xFF	; 255
     fce:	81 e0       	ldi	r24, 0x01	; 1
     fd0:	83 83       	std	Z+3, r24	; 0x03
			u8 rowd_A[]={1,0,0,0,0,0,0,0};
     fd2:	ce 01       	movw	r24, r28
     fd4:	82 5a       	subi	r24, 0xA2	; 162
     fd6:	9f 4f       	sbci	r25, 0xFF	; 255
     fd8:	28 e0       	ldi	r18, 0x08	; 8
     fda:	fc 01       	movw	r30, r24
     fdc:	df 01       	movw	r26, r30
     fde:	82 2f       	mov	r24, r18
     fe0:	1d 92       	st	X+, r1
     fe2:	8a 95       	dec	r24
     fe4:	e9 f7       	brne	.-6      	; 0xfe0 <Write_A+0x160>
     fe6:	fe 01       	movw	r30, r28
     fe8:	e2 5a       	subi	r30, 0xA2	; 162
     fea:	ff 4f       	sbci	r31, 0xFF	; 255
     fec:	81 e0       	ldi	r24, 0x01	; 1
     fee:	80 83       	st	Z, r24
			u8 cole_A[]={0,0,0,0,1,0,0,0};
     ff0:	ce 01       	movw	r24, r28
     ff2:	8a 59       	subi	r24, 0x9A	; 154
     ff4:	9f 4f       	sbci	r25, 0xFF	; 255
     ff6:	28 e0       	ldi	r18, 0x08	; 8
     ff8:	fc 01       	movw	r30, r24
     ffa:	df 01       	movw	r26, r30
     ffc:	82 2f       	mov	r24, r18
     ffe:	1d 92       	st	X+, r1
    1000:	8a 95       	dec	r24
    1002:	e9 f7       	brne	.-6      	; 0xffe <Write_A+0x17e>
    1004:	fe 01       	movw	r30, r28
    1006:	ea 59       	subi	r30, 0x9A	; 154
    1008:	ff 4f       	sbci	r31, 0xFF	; 255
    100a:	81 e0       	ldi	r24, 0x01	; 1
    100c:	84 83       	std	Z+4, r24	; 0x04
			u8 rowe_A[]={0,1,0,0,0,0,0,0};
    100e:	ce 01       	movw	r24, r28
    1010:	82 59       	subi	r24, 0x92	; 146
    1012:	9f 4f       	sbci	r25, 0xFF	; 255
    1014:	28 e0       	ldi	r18, 0x08	; 8
    1016:	fc 01       	movw	r30, r24
    1018:	df 01       	movw	r26, r30
    101a:	82 2f       	mov	r24, r18
    101c:	1d 92       	st	X+, r1
    101e:	8a 95       	dec	r24
    1020:	e9 f7       	brne	.-6      	; 0x101c <Write_A+0x19c>
    1022:	fe 01       	movw	r30, r28
    1024:	e2 59       	subi	r30, 0x92	; 146
    1026:	ff 4f       	sbci	r31, 0xFF	; 255
    1028:	81 e0       	ldi	r24, 0x01	; 1
    102a:	81 83       	std	Z+1, r24	; 0x01
			u8 colf_A[]={0,0,0,0,0,1,0,0};
    102c:	ce 01       	movw	r24, r28
    102e:	8a 58       	subi	r24, 0x8A	; 138
    1030:	9f 4f       	sbci	r25, 0xFF	; 255
    1032:	28 e0       	ldi	r18, 0x08	; 8
    1034:	fc 01       	movw	r30, r24
    1036:	df 01       	movw	r26, r30
    1038:	82 2f       	mov	r24, r18
    103a:	1d 92       	st	X+, r1
    103c:	8a 95       	dec	r24
    103e:	e9 f7       	brne	.-6      	; 0x103a <Write_A+0x1ba>
    1040:	fe 01       	movw	r30, r28
    1042:	ea 58       	subi	r30, 0x8A	; 138
    1044:	ff 4f       	sbci	r31, 0xFF	; 255
    1046:	81 e0       	ldi	r24, 0x01	; 1
    1048:	85 83       	std	Z+5, r24	; 0x05
			u8 rowf_A[]={0,0,1,0,0,0,0,0};
    104a:	ce 01       	movw	r24, r28
    104c:	82 58       	subi	r24, 0x82	; 130
    104e:	9f 4f       	sbci	r25, 0xFF	; 255
    1050:	28 e0       	ldi	r18, 0x08	; 8
    1052:	fc 01       	movw	r30, r24
    1054:	df 01       	movw	r26, r30
    1056:	82 2f       	mov	r24, r18
    1058:	1d 92       	st	X+, r1
    105a:	8a 95       	dec	r24
    105c:	e9 f7       	brne	.-6      	; 0x1058 <Write_A+0x1d8>
    105e:	fe 01       	movw	r30, r28
    1060:	e2 58       	subi	r30, 0x82	; 130
    1062:	ff 4f       	sbci	r31, 0xFF	; 255
    1064:	81 e0       	ldi	r24, 0x01	; 1
    1066:	82 83       	std	Z+2, r24	; 0x02
			u8 colg_A[]={0,0,0,0,0,0,1,0};
    1068:	ce 01       	movw	r24, r28
    106a:	8a 57       	subi	r24, 0x7A	; 122
    106c:	9f 4f       	sbci	r25, 0xFF	; 255
    106e:	28 e0       	ldi	r18, 0x08	; 8
    1070:	fc 01       	movw	r30, r24
    1072:	df 01       	movw	r26, r30
    1074:	82 2f       	mov	r24, r18
    1076:	1d 92       	st	X+, r1
    1078:	8a 95       	dec	r24
    107a:	e9 f7       	brne	.-6      	; 0x1076 <Write_A+0x1f6>
    107c:	fe 01       	movw	r30, r28
    107e:	ea 57       	subi	r30, 0x7A	; 122
    1080:	ff 4f       	sbci	r31, 0xFF	; 255
    1082:	81 e0       	ldi	r24, 0x01	; 1
    1084:	86 83       	std	Z+6, r24	; 0x06
			u8 rowg_A[]={0,0,0,1,1,1,1,1};
    1086:	ce 01       	movw	r24, r28
    1088:	82 57       	subi	r24, 0x72	; 114
    108a:	9f 4f       	sbci	r25, 0xFF	; 255
    108c:	c3 54       	subi	r28, 0x43	; 67
    108e:	df 4f       	sbci	r29, 0xFF	; 255
    1090:	99 83       	std	Y+1, r25	; 0x01
    1092:	88 83       	st	Y, r24
    1094:	cd 5b       	subi	r28, 0xBD	; 189
    1096:	d0 40       	sbci	r29, 0x00	; 0
    1098:	a3 ea       	ldi	r26, 0xA3	; 163
    109a:	b0 e0       	ldi	r27, 0x00	; 0
    109c:	c1 54       	subi	r28, 0x41	; 65
    109e:	df 4f       	sbci	r29, 0xFF	; 255
    10a0:	b9 83       	std	Y+1, r27	; 0x01
    10a2:	a8 83       	st	Y, r26
    10a4:	cf 5b       	subi	r28, 0xBF	; 191
    10a6:	d0 40       	sbci	r29, 0x00	; 0
    10a8:	b8 e0       	ldi	r27, 0x08	; 8
    10aa:	cf 53       	subi	r28, 0x3F	; 63
    10ac:	df 4f       	sbci	r29, 0xFF	; 255
    10ae:	b8 83       	st	Y, r27
    10b0:	c1 5c       	subi	r28, 0xC1	; 193
    10b2:	d0 40       	sbci	r29, 0x00	; 0
    10b4:	c1 54       	subi	r28, 0x41	; 65
    10b6:	df 4f       	sbci	r29, 0xFF	; 255
    10b8:	e8 81       	ld	r30, Y
    10ba:	f9 81       	ldd	r31, Y+1	; 0x01
    10bc:	cf 5b       	subi	r28, 0xBF	; 191
    10be:	d0 40       	sbci	r29, 0x00	; 0
    10c0:	00 80       	ld	r0, Z
    10c2:	c1 54       	subi	r28, 0x41	; 65
    10c4:	df 4f       	sbci	r29, 0xFF	; 255
    10c6:	88 81       	ld	r24, Y
    10c8:	99 81       	ldd	r25, Y+1	; 0x01
    10ca:	cf 5b       	subi	r28, 0xBF	; 191
    10cc:	d0 40       	sbci	r29, 0x00	; 0
    10ce:	01 96       	adiw	r24, 0x01	; 1
    10d0:	c1 54       	subi	r28, 0x41	; 65
    10d2:	df 4f       	sbci	r29, 0xFF	; 255
    10d4:	99 83       	std	Y+1, r25	; 0x01
    10d6:	88 83       	st	Y, r24
    10d8:	cf 5b       	subi	r28, 0xBF	; 191
    10da:	d0 40       	sbci	r29, 0x00	; 0
    10dc:	c3 54       	subi	r28, 0x43	; 67
    10de:	df 4f       	sbci	r29, 0xFF	; 255
    10e0:	a8 81       	ld	r26, Y
    10e2:	b9 81       	ldd	r27, Y+1	; 0x01
    10e4:	cd 5b       	subi	r28, 0xBD	; 189
    10e6:	d0 40       	sbci	r29, 0x00	; 0
    10e8:	0c 92       	st	X, r0
    10ea:	c3 54       	subi	r28, 0x43	; 67
    10ec:	df 4f       	sbci	r29, 0xFF	; 255
    10ee:	e8 81       	ld	r30, Y
    10f0:	f9 81       	ldd	r31, Y+1	; 0x01
    10f2:	cd 5b       	subi	r28, 0xBD	; 189
    10f4:	d0 40       	sbci	r29, 0x00	; 0
    10f6:	31 96       	adiw	r30, 0x01	; 1
    10f8:	c3 54       	subi	r28, 0x43	; 67
    10fa:	df 4f       	sbci	r29, 0xFF	; 255
    10fc:	f9 83       	std	Y+1, r31	; 0x01
    10fe:	e8 83       	st	Y, r30
    1100:	cd 5b       	subi	r28, 0xBD	; 189
    1102:	d0 40       	sbci	r29, 0x00	; 0
    1104:	cf 53       	subi	r28, 0x3F	; 63
    1106:	df 4f       	sbci	r29, 0xFF	; 255
    1108:	f8 81       	ld	r31, Y
    110a:	c1 5c       	subi	r28, 0xC1	; 193
    110c:	d0 40       	sbci	r29, 0x00	; 0
    110e:	f1 50       	subi	r31, 0x01	; 1
    1110:	cf 53       	subi	r28, 0x3F	; 63
    1112:	df 4f       	sbci	r29, 0xFF	; 255
    1114:	f8 83       	st	Y, r31
    1116:	c1 5c       	subi	r28, 0xC1	; 193
    1118:	d0 40       	sbci	r29, 0x00	; 0
    111a:	cf 53       	subi	r28, 0x3F	; 63
    111c:	df 4f       	sbci	r29, 0xFF	; 255
    111e:	88 81       	ld	r24, Y
    1120:	c1 5c       	subi	r28, 0xC1	; 193
    1122:	d0 40       	sbci	r29, 0x00	; 0
    1124:	88 23       	and	r24, r24
    1126:	31 f6       	brne	.-116    	; 0x10b4 <Write_A+0x234>
			u8 colh_A[]={1,1,1,1,1,1,1,0};
    1128:	ce 01       	movw	r24, r28
    112a:	8a 56       	subi	r24, 0x6A	; 106
    112c:	9f 4f       	sbci	r25, 0xFF	; 255
    112e:	ce 53       	subi	r28, 0x3E	; 62
    1130:	df 4f       	sbci	r29, 0xFF	; 255
    1132:	99 83       	std	Y+1, r25	; 0x01
    1134:	88 83       	st	Y, r24
    1136:	c2 5c       	subi	r28, 0xC2	; 194
    1138:	d0 40       	sbci	r29, 0x00	; 0
    113a:	ab e9       	ldi	r26, 0x9B	; 155
    113c:	b0 e0       	ldi	r27, 0x00	; 0
    113e:	cc 53       	subi	r28, 0x3C	; 60
    1140:	df 4f       	sbci	r29, 0xFF	; 255
    1142:	b9 83       	std	Y+1, r27	; 0x01
    1144:	a8 83       	st	Y, r26
    1146:	c4 5c       	subi	r28, 0xC4	; 196
    1148:	d0 40       	sbci	r29, 0x00	; 0
    114a:	b8 e0       	ldi	r27, 0x08	; 8
    114c:	ca 53       	subi	r28, 0x3A	; 58
    114e:	df 4f       	sbci	r29, 0xFF	; 255
    1150:	b8 83       	st	Y, r27
    1152:	c6 5c       	subi	r28, 0xC6	; 198
    1154:	d0 40       	sbci	r29, 0x00	; 0
    1156:	cc 53       	subi	r28, 0x3C	; 60
    1158:	df 4f       	sbci	r29, 0xFF	; 255
    115a:	e8 81       	ld	r30, Y
    115c:	f9 81       	ldd	r31, Y+1	; 0x01
    115e:	c4 5c       	subi	r28, 0xC4	; 196
    1160:	d0 40       	sbci	r29, 0x00	; 0
    1162:	00 80       	ld	r0, Z
    1164:	cc 53       	subi	r28, 0x3C	; 60
    1166:	df 4f       	sbci	r29, 0xFF	; 255
    1168:	88 81       	ld	r24, Y
    116a:	99 81       	ldd	r25, Y+1	; 0x01
    116c:	c4 5c       	subi	r28, 0xC4	; 196
    116e:	d0 40       	sbci	r29, 0x00	; 0
    1170:	01 96       	adiw	r24, 0x01	; 1
    1172:	cc 53       	subi	r28, 0x3C	; 60
    1174:	df 4f       	sbci	r29, 0xFF	; 255
    1176:	99 83       	std	Y+1, r25	; 0x01
    1178:	88 83       	st	Y, r24
    117a:	c4 5c       	subi	r28, 0xC4	; 196
    117c:	d0 40       	sbci	r29, 0x00	; 0
    117e:	ce 53       	subi	r28, 0x3E	; 62
    1180:	df 4f       	sbci	r29, 0xFF	; 255
    1182:	a8 81       	ld	r26, Y
    1184:	b9 81       	ldd	r27, Y+1	; 0x01
    1186:	c2 5c       	subi	r28, 0xC2	; 194
    1188:	d0 40       	sbci	r29, 0x00	; 0
    118a:	0c 92       	st	X, r0
    118c:	ce 53       	subi	r28, 0x3E	; 62
    118e:	df 4f       	sbci	r29, 0xFF	; 255
    1190:	e8 81       	ld	r30, Y
    1192:	f9 81       	ldd	r31, Y+1	; 0x01
    1194:	c2 5c       	subi	r28, 0xC2	; 194
    1196:	d0 40       	sbci	r29, 0x00	; 0
    1198:	31 96       	adiw	r30, 0x01	; 1
    119a:	ce 53       	subi	r28, 0x3E	; 62
    119c:	df 4f       	sbci	r29, 0xFF	; 255
    119e:	f9 83       	std	Y+1, r31	; 0x01
    11a0:	e8 83       	st	Y, r30
    11a2:	c2 5c       	subi	r28, 0xC2	; 194
    11a4:	d0 40       	sbci	r29, 0x00	; 0
    11a6:	ca 53       	subi	r28, 0x3A	; 58
    11a8:	df 4f       	sbci	r29, 0xFF	; 255
    11aa:	f8 81       	ld	r31, Y
    11ac:	c6 5c       	subi	r28, 0xC6	; 198
    11ae:	d0 40       	sbci	r29, 0x00	; 0
    11b0:	f1 50       	subi	r31, 0x01	; 1
    11b2:	ca 53       	subi	r28, 0x3A	; 58
    11b4:	df 4f       	sbci	r29, 0xFF	; 255
    11b6:	f8 83       	st	Y, r31
    11b8:	c6 5c       	subi	r28, 0xC6	; 198
    11ba:	d0 40       	sbci	r29, 0x00	; 0
    11bc:	ca 53       	subi	r28, 0x3A	; 58
    11be:	df 4f       	sbci	r29, 0xFF	; 255
    11c0:	88 81       	ld	r24, Y
    11c2:	c6 5c       	subi	r28, 0xC6	; 198
    11c4:	d0 40       	sbci	r29, 0x00	; 0
    11c6:	88 23       	and	r24, r24
    11c8:	31 f6       	brne	.-116    	; 0x1156 <Write_A+0x2d6>
			u8 rowh_A[]={0,0,0,0,0,1,0,0};
    11ca:	ce 01       	movw	r24, r28
    11cc:	82 56       	subi	r24, 0x62	; 98
    11ce:	9f 4f       	sbci	r25, 0xFF	; 255
    11d0:	28 e0       	ldi	r18, 0x08	; 8
    11d2:	fc 01       	movw	r30, r24
    11d4:	df 01       	movw	r26, r30
    11d6:	82 2f       	mov	r24, r18
    11d8:	1d 92       	st	X+, r1
    11da:	8a 95       	dec	r24
    11dc:	e9 f7       	brne	.-6      	; 0x11d8 <Write_A+0x358>
    11de:	fe 01       	movw	r30, r28
    11e0:	e2 56       	subi	r30, 0x62	; 98
    11e2:	ff 4f       	sbci	r31, 0xFF	; 255
    11e4:	81 e0       	ldi	r24, 0x01	; 1
    11e6:	85 83       	std	Z+5, r24	; 0x05

		u8 x = 30 ;
    11e8:	8e e1       	ldi	r24, 0x1E	; 30
    11ea:	8d a3       	std	Y+37, r24	; 0x25
    11ec:	b4 c2       	rjmp	.+1384   	; 0x1756 <Write_A+0x8d6>
	while(x)
	{

	cols(cola_A);
    11ee:	ce 01       	movw	r24, r28
    11f0:	86 96       	adiw	r24, 0x26	; 38
    11f2:	0e 94 77 15 	call	0x2aee	; 0x2aee <cols>
	rows(rowa_A);
    11f6:	ce 01       	movw	r24, r28
    11f8:	8e 96       	adiw	r24, 0x2e	; 46
    11fa:	0e 94 18 15 	call	0x2a30	; 0x2a30 <rows>
	DIO_u8WritePinVal(latch,1);
    11fe:	83 e1       	ldi	r24, 0x13	; 19
    1200:	61 e0       	ldi	r22, 0x01	; 1
    1202:	0e 94 cd 00 	call	0x19a	; 0x19a <DIO_u8WritePinVal>
	DELAY(0.001);
    1206:	1a a2       	std	Y+34, r1	; 0x22
    1208:	19 a2       	std	Y+33, r1	; 0x21
    120a:	1f c0       	rjmp	.+62     	; 0x124a <Write_A+0x3ca>
    120c:	88 e2       	ldi	r24, 0x28	; 40
    120e:	9a e0       	ldi	r25, 0x0A	; 10
    1210:	9c a3       	std	Y+36, r25	; 0x24
    1212:	8b a3       	std	Y+35, r24	; 0x23
    1214:	c9 54       	subi	r28, 0x49	; 73
    1216:	df 4f       	sbci	r29, 0xFF	; 255
    1218:	18 82       	st	Y, r1
    121a:	c7 5b       	subi	r28, 0xB7	; 183
    121c:	d0 40       	sbci	r29, 0x00	; 0
    121e:	8b a1       	ldd	r24, Y+35	; 0x23
    1220:	9c a1       	ldd	r25, Y+36	; 0x24
    1222:	00 97       	sbiw	r24, 0x00	; 0
    1224:	31 f0       	breq	.+12     	; 0x1232 <Write_A+0x3b2>
    1226:	91 e0       	ldi	r25, 0x01	; 1
    1228:	c9 54       	subi	r28, 0x49	; 73
    122a:	df 4f       	sbci	r29, 0xFF	; 255
    122c:	98 83       	st	Y, r25
    122e:	c7 5b       	subi	r28, 0xB7	; 183
    1230:	d0 40       	sbci	r29, 0x00	; 0
    1232:	8b a1       	ldd	r24, Y+35	; 0x23
    1234:	9c a1       	ldd	r25, Y+36	; 0x24
    1236:	01 97       	sbiw	r24, 0x01	; 1
    1238:	9c a3       	std	Y+36, r25	; 0x24
    123a:	8b a3       	std	Y+35, r24	; 0x23
    123c:	c9 54       	subi	r28, 0x49	; 73
    123e:	df 4f       	sbci	r29, 0xFF	; 255
    1240:	a8 81       	ld	r26, Y
    1242:	c7 5b       	subi	r28, 0xB7	; 183
    1244:	d0 40       	sbci	r29, 0x00	; 0
    1246:	aa 23       	and	r26, r26
    1248:	29 f7       	brne	.-54     	; 0x1214 <Write_A+0x394>
    124a:	ca 54       	subi	r28, 0x4A	; 74
    124c:	df 4f       	sbci	r29, 0xFF	; 255
    124e:	18 82       	st	Y, r1
    1250:	c6 5b       	subi	r28, 0xB6	; 182
    1252:	d0 40       	sbci	r29, 0x00	; 0
    1254:	89 a1       	ldd	r24, Y+33	; 0x21
    1256:	9a a1       	ldd	r25, Y+34	; 0x22
    1258:	00 97       	sbiw	r24, 0x00	; 0
    125a:	31 f0       	breq	.+12     	; 0x1268 <Write_A+0x3e8>
    125c:	b1 e0       	ldi	r27, 0x01	; 1
    125e:	ca 54       	subi	r28, 0x4A	; 74
    1260:	df 4f       	sbci	r29, 0xFF	; 255
    1262:	b8 83       	st	Y, r27
    1264:	c6 5b       	subi	r28, 0xB6	; 182
    1266:	d0 40       	sbci	r29, 0x00	; 0
    1268:	89 a1       	ldd	r24, Y+33	; 0x21
    126a:	9a a1       	ldd	r25, Y+34	; 0x22
    126c:	01 97       	sbiw	r24, 0x01	; 1
    126e:	9a a3       	std	Y+34, r25	; 0x22
    1270:	89 a3       	std	Y+33, r24	; 0x21
    1272:	ca 54       	subi	r28, 0x4A	; 74
    1274:	df 4f       	sbci	r29, 0xFF	; 255
    1276:	e8 81       	ld	r30, Y
    1278:	c6 5b       	subi	r28, 0xB6	; 182
    127a:	d0 40       	sbci	r29, 0x00	; 0
    127c:	ee 23       	and	r30, r30
    127e:	31 f6       	brne	.-116    	; 0x120c <Write_A+0x38c>
	DIO_u8WritePinVal(latch,0);
    1280:	83 e1       	ldi	r24, 0x13	; 19
    1282:	60 e0       	ldi	r22, 0x00	; 0
    1284:	0e 94 cd 00 	call	0x19a	; 0x19a <DIO_u8WritePinVal>

	cols(colb_A);
    1288:	ce 01       	movw	r24, r28
    128a:	c6 96       	adiw	r24, 0x36	; 54
    128c:	0e 94 77 15 	call	0x2aee	; 0x2aee <cols>
	rows(rowb_A);
    1290:	ce 01       	movw	r24, r28
    1292:	ce 96       	adiw	r24, 0x3e	; 62
    1294:	0e 94 18 15 	call	0x2a30	; 0x2a30 <rows>
	DIO_u8WritePinVal(latch,1);
    1298:	83 e1       	ldi	r24, 0x13	; 19
    129a:	61 e0       	ldi	r22, 0x01	; 1
    129c:	0e 94 cd 00 	call	0x19a	; 0x19a <DIO_u8WritePinVal>
	DELAY(0.001);
    12a0:	1e 8e       	std	Y+30, r1	; 0x1e
    12a2:	1d 8e       	std	Y+29, r1	; 0x1d
    12a4:	1f c0       	rjmp	.+62     	; 0x12e4 <Write_A+0x464>
    12a6:	88 e2       	ldi	r24, 0x28	; 40
    12a8:	9a e0       	ldi	r25, 0x0A	; 10
    12aa:	98 a3       	std	Y+32, r25	; 0x20
    12ac:	8f 8f       	std	Y+31, r24	; 0x1f
    12ae:	cb 54       	subi	r28, 0x4B	; 75
    12b0:	df 4f       	sbci	r29, 0xFF	; 255
    12b2:	18 82       	st	Y, r1
    12b4:	c5 5b       	subi	r28, 0xB5	; 181
    12b6:	d0 40       	sbci	r29, 0x00	; 0
    12b8:	8f 8d       	ldd	r24, Y+31	; 0x1f
    12ba:	98 a1       	ldd	r25, Y+32	; 0x20
    12bc:	00 97       	sbiw	r24, 0x00	; 0
    12be:	31 f0       	breq	.+12     	; 0x12cc <Write_A+0x44c>
    12c0:	f1 e0       	ldi	r31, 0x01	; 1
    12c2:	cb 54       	subi	r28, 0x4B	; 75
    12c4:	df 4f       	sbci	r29, 0xFF	; 255
    12c6:	f8 83       	st	Y, r31
    12c8:	c5 5b       	subi	r28, 0xB5	; 181
    12ca:	d0 40       	sbci	r29, 0x00	; 0
    12cc:	8f 8d       	ldd	r24, Y+31	; 0x1f
    12ce:	98 a1       	ldd	r25, Y+32	; 0x20
    12d0:	01 97       	sbiw	r24, 0x01	; 1
    12d2:	98 a3       	std	Y+32, r25	; 0x20
    12d4:	8f 8f       	std	Y+31, r24	; 0x1f
    12d6:	cb 54       	subi	r28, 0x4B	; 75
    12d8:	df 4f       	sbci	r29, 0xFF	; 255
    12da:	88 81       	ld	r24, Y
    12dc:	c5 5b       	subi	r28, 0xB5	; 181
    12de:	d0 40       	sbci	r29, 0x00	; 0
    12e0:	88 23       	and	r24, r24
    12e2:	29 f7       	brne	.-54     	; 0x12ae <Write_A+0x42e>
    12e4:	cc 54       	subi	r28, 0x4C	; 76
    12e6:	df 4f       	sbci	r29, 0xFF	; 255
    12e8:	18 82       	st	Y, r1
    12ea:	c4 5b       	subi	r28, 0xB4	; 180
    12ec:	d0 40       	sbci	r29, 0x00	; 0
    12ee:	8d 8d       	ldd	r24, Y+29	; 0x1d
    12f0:	9e 8d       	ldd	r25, Y+30	; 0x1e
    12f2:	00 97       	sbiw	r24, 0x00	; 0
    12f4:	31 f0       	breq	.+12     	; 0x1302 <Write_A+0x482>
    12f6:	91 e0       	ldi	r25, 0x01	; 1
    12f8:	cc 54       	subi	r28, 0x4C	; 76
    12fa:	df 4f       	sbci	r29, 0xFF	; 255
    12fc:	98 83       	st	Y, r25
    12fe:	c4 5b       	subi	r28, 0xB4	; 180
    1300:	d0 40       	sbci	r29, 0x00	; 0
    1302:	8d 8d       	ldd	r24, Y+29	; 0x1d
    1304:	9e 8d       	ldd	r25, Y+30	; 0x1e
    1306:	01 97       	sbiw	r24, 0x01	; 1
    1308:	9e 8f       	std	Y+30, r25	; 0x1e
    130a:	8d 8f       	std	Y+29, r24	; 0x1d
    130c:	cc 54       	subi	r28, 0x4C	; 76
    130e:	df 4f       	sbci	r29, 0xFF	; 255
    1310:	a8 81       	ld	r26, Y
    1312:	c4 5b       	subi	r28, 0xB4	; 180
    1314:	d0 40       	sbci	r29, 0x00	; 0
    1316:	aa 23       	and	r26, r26
    1318:	31 f6       	brne	.-116    	; 0x12a6 <Write_A+0x426>
	DIO_u8WritePinVal(latch,0);
    131a:	83 e1       	ldi	r24, 0x13	; 19
    131c:	60 e0       	ldi	r22, 0x00	; 0
    131e:	0e 94 cd 00 	call	0x19a	; 0x19a <DIO_u8WritePinVal>
	DELAY(0.001);
    1322:	1a 8e       	std	Y+26, r1	; 0x1a
    1324:	19 8e       	std	Y+25, r1	; 0x19
    1326:	1f c0       	rjmp	.+62     	; 0x1366 <Write_A+0x4e6>
    1328:	88 e2       	ldi	r24, 0x28	; 40
    132a:	9a e0       	ldi	r25, 0x0A	; 10
    132c:	9c 8f       	std	Y+28, r25	; 0x1c
    132e:	8b 8f       	std	Y+27, r24	; 0x1b
    1330:	cd 54       	subi	r28, 0x4D	; 77
    1332:	df 4f       	sbci	r29, 0xFF	; 255
    1334:	18 82       	st	Y, r1
    1336:	c3 5b       	subi	r28, 0xB3	; 179
    1338:	d0 40       	sbci	r29, 0x00	; 0
    133a:	8b 8d       	ldd	r24, Y+27	; 0x1b
    133c:	9c 8d       	ldd	r25, Y+28	; 0x1c
    133e:	00 97       	sbiw	r24, 0x00	; 0
    1340:	31 f0       	breq	.+12     	; 0x134e <Write_A+0x4ce>
    1342:	b1 e0       	ldi	r27, 0x01	; 1
    1344:	cd 54       	subi	r28, 0x4D	; 77
    1346:	df 4f       	sbci	r29, 0xFF	; 255
    1348:	b8 83       	st	Y, r27
    134a:	c3 5b       	subi	r28, 0xB3	; 179
    134c:	d0 40       	sbci	r29, 0x00	; 0
    134e:	8b 8d       	ldd	r24, Y+27	; 0x1b
    1350:	9c 8d       	ldd	r25, Y+28	; 0x1c
    1352:	01 97       	sbiw	r24, 0x01	; 1
    1354:	9c 8f       	std	Y+28, r25	; 0x1c
    1356:	8b 8f       	std	Y+27, r24	; 0x1b
    1358:	cd 54       	subi	r28, 0x4D	; 77
    135a:	df 4f       	sbci	r29, 0xFF	; 255
    135c:	e8 81       	ld	r30, Y
    135e:	c3 5b       	subi	r28, 0xB3	; 179
    1360:	d0 40       	sbci	r29, 0x00	; 0
    1362:	ee 23       	and	r30, r30
    1364:	29 f7       	brne	.-54     	; 0x1330 <Write_A+0x4b0>
    1366:	ce 54       	subi	r28, 0x4E	; 78
    1368:	df 4f       	sbci	r29, 0xFF	; 255
    136a:	18 82       	st	Y, r1
    136c:	c2 5b       	subi	r28, 0xB2	; 178
    136e:	d0 40       	sbci	r29, 0x00	; 0
    1370:	89 8d       	ldd	r24, Y+25	; 0x19
    1372:	9a 8d       	ldd	r25, Y+26	; 0x1a
    1374:	00 97       	sbiw	r24, 0x00	; 0
    1376:	31 f0       	breq	.+12     	; 0x1384 <Write_A+0x504>
    1378:	f1 e0       	ldi	r31, 0x01	; 1
    137a:	ce 54       	subi	r28, 0x4E	; 78
    137c:	df 4f       	sbci	r29, 0xFF	; 255
    137e:	f8 83       	st	Y, r31
    1380:	c2 5b       	subi	r28, 0xB2	; 178
    1382:	d0 40       	sbci	r29, 0x00	; 0
    1384:	89 8d       	ldd	r24, Y+25	; 0x19
    1386:	9a 8d       	ldd	r25, Y+26	; 0x1a
    1388:	01 97       	sbiw	r24, 0x01	; 1
    138a:	9a 8f       	std	Y+26, r25	; 0x1a
    138c:	89 8f       	std	Y+25, r24	; 0x19
    138e:	ce 54       	subi	r28, 0x4E	; 78
    1390:	df 4f       	sbci	r29, 0xFF	; 255
    1392:	88 81       	ld	r24, Y
    1394:	c2 5b       	subi	r28, 0xB2	; 178
    1396:	d0 40       	sbci	r29, 0x00	; 0
    1398:	88 23       	and	r24, r24
    139a:	31 f6       	brne	.-116    	; 0x1328 <Write_A+0x4a8>

	cols(colc_A);
    139c:	ce 01       	movw	r24, r28
    139e:	8a 5b       	subi	r24, 0xBA	; 186
    13a0:	9f 4f       	sbci	r25, 0xFF	; 255
    13a2:	0e 94 77 15 	call	0x2aee	; 0x2aee <cols>
	rows(rowc_A);
    13a6:	ce 01       	movw	r24, r28
    13a8:	82 5b       	subi	r24, 0xB2	; 178
    13aa:	9f 4f       	sbci	r25, 0xFF	; 255
    13ac:	0e 94 18 15 	call	0x2a30	; 0x2a30 <rows>
	DIO_u8WritePinVal(latch,1);
    13b0:	83 e1       	ldi	r24, 0x13	; 19
    13b2:	61 e0       	ldi	r22, 0x01	; 1
    13b4:	0e 94 cd 00 	call	0x19a	; 0x19a <DIO_u8WritePinVal>
	DELAY(0.001);
    13b8:	1e 8a       	std	Y+22, r1	; 0x16
    13ba:	1d 8a       	std	Y+21, r1	; 0x15
    13bc:	1f c0       	rjmp	.+62     	; 0x13fc <Write_A+0x57c>
    13be:	88 e2       	ldi	r24, 0x28	; 40
    13c0:	9a e0       	ldi	r25, 0x0A	; 10
    13c2:	98 8f       	std	Y+24, r25	; 0x18
    13c4:	8f 8b       	std	Y+23, r24	; 0x17
    13c6:	cf 54       	subi	r28, 0x4F	; 79
    13c8:	df 4f       	sbci	r29, 0xFF	; 255
    13ca:	18 82       	st	Y, r1
    13cc:	c1 5b       	subi	r28, 0xB1	; 177
    13ce:	d0 40       	sbci	r29, 0x00	; 0
    13d0:	8f 89       	ldd	r24, Y+23	; 0x17
    13d2:	98 8d       	ldd	r25, Y+24	; 0x18
    13d4:	00 97       	sbiw	r24, 0x00	; 0
    13d6:	31 f0       	breq	.+12     	; 0x13e4 <Write_A+0x564>
    13d8:	91 e0       	ldi	r25, 0x01	; 1
    13da:	cf 54       	subi	r28, 0x4F	; 79
    13dc:	df 4f       	sbci	r29, 0xFF	; 255
    13de:	98 83       	st	Y, r25
    13e0:	c1 5b       	subi	r28, 0xB1	; 177
    13e2:	d0 40       	sbci	r29, 0x00	; 0
    13e4:	8f 89       	ldd	r24, Y+23	; 0x17
    13e6:	98 8d       	ldd	r25, Y+24	; 0x18
    13e8:	01 97       	sbiw	r24, 0x01	; 1
    13ea:	98 8f       	std	Y+24, r25	; 0x18
    13ec:	8f 8b       	std	Y+23, r24	; 0x17
    13ee:	cf 54       	subi	r28, 0x4F	; 79
    13f0:	df 4f       	sbci	r29, 0xFF	; 255
    13f2:	a8 81       	ld	r26, Y
    13f4:	c1 5b       	subi	r28, 0xB1	; 177
    13f6:	d0 40       	sbci	r29, 0x00	; 0
    13f8:	aa 23       	and	r26, r26
    13fa:	29 f7       	brne	.-54     	; 0x13c6 <Write_A+0x546>
    13fc:	c0 55       	subi	r28, 0x50	; 80
    13fe:	df 4f       	sbci	r29, 0xFF	; 255
    1400:	18 82       	st	Y, r1
    1402:	c0 5b       	subi	r28, 0xB0	; 176
    1404:	d0 40       	sbci	r29, 0x00	; 0
    1406:	8d 89       	ldd	r24, Y+21	; 0x15
    1408:	9e 89       	ldd	r25, Y+22	; 0x16
    140a:	00 97       	sbiw	r24, 0x00	; 0
    140c:	31 f0       	breq	.+12     	; 0x141a <Write_A+0x59a>
    140e:	b1 e0       	ldi	r27, 0x01	; 1
    1410:	c0 55       	subi	r28, 0x50	; 80
    1412:	df 4f       	sbci	r29, 0xFF	; 255
    1414:	b8 83       	st	Y, r27
    1416:	c0 5b       	subi	r28, 0xB0	; 176
    1418:	d0 40       	sbci	r29, 0x00	; 0
    141a:	8d 89       	ldd	r24, Y+21	; 0x15
    141c:	9e 89       	ldd	r25, Y+22	; 0x16
    141e:	01 97       	sbiw	r24, 0x01	; 1
    1420:	9e 8b       	std	Y+22, r25	; 0x16
    1422:	8d 8b       	std	Y+21, r24	; 0x15
    1424:	c0 55       	subi	r28, 0x50	; 80
    1426:	df 4f       	sbci	r29, 0xFF	; 255
    1428:	e8 81       	ld	r30, Y
    142a:	c0 5b       	subi	r28, 0xB0	; 176
    142c:	d0 40       	sbci	r29, 0x00	; 0
    142e:	ee 23       	and	r30, r30
    1430:	31 f6       	brne	.-116    	; 0x13be <Write_A+0x53e>
	DIO_u8WritePinVal(latch,0);
    1432:	83 e1       	ldi	r24, 0x13	; 19
    1434:	60 e0       	ldi	r22, 0x00	; 0
    1436:	0e 94 cd 00 	call	0x19a	; 0x19a <DIO_u8WritePinVal>

	cols(cold_A);
    143a:	ce 01       	movw	r24, r28
    143c:	8a 5a       	subi	r24, 0xAA	; 170
    143e:	9f 4f       	sbci	r25, 0xFF	; 255
    1440:	0e 94 77 15 	call	0x2aee	; 0x2aee <cols>
	rows(rowd_A);
    1444:	ce 01       	movw	r24, r28
    1446:	82 5a       	subi	r24, 0xA2	; 162
    1448:	9f 4f       	sbci	r25, 0xFF	; 255
    144a:	0e 94 18 15 	call	0x2a30	; 0x2a30 <rows>
	DIO_u8WritePinVal(latch,1);
    144e:	83 e1       	ldi	r24, 0x13	; 19
    1450:	61 e0       	ldi	r22, 0x01	; 1
    1452:	0e 94 cd 00 	call	0x19a	; 0x19a <DIO_u8WritePinVal>
	DELAY(0.001);
    1456:	1a 8a       	std	Y+18, r1	; 0x12
    1458:	19 8a       	std	Y+17, r1	; 0x11
    145a:	1f c0       	rjmp	.+62     	; 0x149a <Write_A+0x61a>
    145c:	88 e2       	ldi	r24, 0x28	; 40
    145e:	9a e0       	ldi	r25, 0x0A	; 10
    1460:	9c 8b       	std	Y+20, r25	; 0x14
    1462:	8b 8b       	std	Y+19, r24	; 0x13
    1464:	c1 55       	subi	r28, 0x51	; 81
    1466:	df 4f       	sbci	r29, 0xFF	; 255
    1468:	18 82       	st	Y, r1
    146a:	cf 5a       	subi	r28, 0xAF	; 175
    146c:	d0 40       	sbci	r29, 0x00	; 0
    146e:	8b 89       	ldd	r24, Y+19	; 0x13
    1470:	9c 89       	ldd	r25, Y+20	; 0x14
    1472:	00 97       	sbiw	r24, 0x00	; 0
    1474:	31 f0       	breq	.+12     	; 0x1482 <Write_A+0x602>
    1476:	f1 e0       	ldi	r31, 0x01	; 1
    1478:	c1 55       	subi	r28, 0x51	; 81
    147a:	df 4f       	sbci	r29, 0xFF	; 255
    147c:	f8 83       	st	Y, r31
    147e:	cf 5a       	subi	r28, 0xAF	; 175
    1480:	d0 40       	sbci	r29, 0x00	; 0
    1482:	8b 89       	ldd	r24, Y+19	; 0x13
    1484:	9c 89       	ldd	r25, Y+20	; 0x14
    1486:	01 97       	sbiw	r24, 0x01	; 1
    1488:	9c 8b       	std	Y+20, r25	; 0x14
    148a:	8b 8b       	std	Y+19, r24	; 0x13
    148c:	c1 55       	subi	r28, 0x51	; 81
    148e:	df 4f       	sbci	r29, 0xFF	; 255
    1490:	88 81       	ld	r24, Y
    1492:	cf 5a       	subi	r28, 0xAF	; 175
    1494:	d0 40       	sbci	r29, 0x00	; 0
    1496:	88 23       	and	r24, r24
    1498:	29 f7       	brne	.-54     	; 0x1464 <Write_A+0x5e4>
    149a:	c2 55       	subi	r28, 0x52	; 82
    149c:	df 4f       	sbci	r29, 0xFF	; 255
    149e:	18 82       	st	Y, r1
    14a0:	ce 5a       	subi	r28, 0xAE	; 174
    14a2:	d0 40       	sbci	r29, 0x00	; 0
    14a4:	89 89       	ldd	r24, Y+17	; 0x11
    14a6:	9a 89       	ldd	r25, Y+18	; 0x12
    14a8:	00 97       	sbiw	r24, 0x00	; 0
    14aa:	31 f0       	breq	.+12     	; 0x14b8 <Write_A+0x638>
    14ac:	91 e0       	ldi	r25, 0x01	; 1
    14ae:	c2 55       	subi	r28, 0x52	; 82
    14b0:	df 4f       	sbci	r29, 0xFF	; 255
    14b2:	98 83       	st	Y, r25
    14b4:	ce 5a       	subi	r28, 0xAE	; 174
    14b6:	d0 40       	sbci	r29, 0x00	; 0
    14b8:	89 89       	ldd	r24, Y+17	; 0x11
    14ba:	9a 89       	ldd	r25, Y+18	; 0x12
    14bc:	01 97       	sbiw	r24, 0x01	; 1
    14be:	9a 8b       	std	Y+18, r25	; 0x12
    14c0:	89 8b       	std	Y+17, r24	; 0x11
    14c2:	c2 55       	subi	r28, 0x52	; 82
    14c4:	df 4f       	sbci	r29, 0xFF	; 255
    14c6:	a8 81       	ld	r26, Y
    14c8:	ce 5a       	subi	r28, 0xAE	; 174
    14ca:	d0 40       	sbci	r29, 0x00	; 0
    14cc:	aa 23       	and	r26, r26
    14ce:	31 f6       	brne	.-116    	; 0x145c <Write_A+0x5dc>
	DIO_u8WritePinVal(latch,0);
    14d0:	83 e1       	ldi	r24, 0x13	; 19
    14d2:	60 e0       	ldi	r22, 0x00	; 0
    14d4:	0e 94 cd 00 	call	0x19a	; 0x19a <DIO_u8WritePinVal>

	cols(cole_A);
    14d8:	ce 01       	movw	r24, r28
    14da:	8a 59       	subi	r24, 0x9A	; 154
    14dc:	9f 4f       	sbci	r25, 0xFF	; 255
    14de:	0e 94 77 15 	call	0x2aee	; 0x2aee <cols>
	rows(rowe_A);
    14e2:	ce 01       	movw	r24, r28
    14e4:	82 59       	subi	r24, 0x92	; 146
    14e6:	9f 4f       	sbci	r25, 0xFF	; 255
    14e8:	0e 94 18 15 	call	0x2a30	; 0x2a30 <rows>
	DIO_u8WritePinVal(latch,1);
    14ec:	83 e1       	ldi	r24, 0x13	; 19
    14ee:	61 e0       	ldi	r22, 0x01	; 1
    14f0:	0e 94 cd 00 	call	0x19a	; 0x19a <DIO_u8WritePinVal>
	DELAY(0.001);
    14f4:	1e 86       	std	Y+14, r1	; 0x0e
    14f6:	1d 86       	std	Y+13, r1	; 0x0d
    14f8:	1f c0       	rjmp	.+62     	; 0x1538 <Write_A+0x6b8>
    14fa:	88 e2       	ldi	r24, 0x28	; 40
    14fc:	9a e0       	ldi	r25, 0x0A	; 10
    14fe:	98 8b       	std	Y+16, r25	; 0x10
    1500:	8f 87       	std	Y+15, r24	; 0x0f
    1502:	c3 55       	subi	r28, 0x53	; 83
    1504:	df 4f       	sbci	r29, 0xFF	; 255
    1506:	18 82       	st	Y, r1
    1508:	cd 5a       	subi	r28, 0xAD	; 173
    150a:	d0 40       	sbci	r29, 0x00	; 0
    150c:	8f 85       	ldd	r24, Y+15	; 0x0f
    150e:	98 89       	ldd	r25, Y+16	; 0x10
    1510:	00 97       	sbiw	r24, 0x00	; 0
    1512:	31 f0       	breq	.+12     	; 0x1520 <Write_A+0x6a0>
    1514:	b1 e0       	ldi	r27, 0x01	; 1
    1516:	c3 55       	subi	r28, 0x53	; 83
    1518:	df 4f       	sbci	r29, 0xFF	; 255
    151a:	b8 83       	st	Y, r27
    151c:	cd 5a       	subi	r28, 0xAD	; 173
    151e:	d0 40       	sbci	r29, 0x00	; 0
    1520:	8f 85       	ldd	r24, Y+15	; 0x0f
    1522:	98 89       	ldd	r25, Y+16	; 0x10
    1524:	01 97       	sbiw	r24, 0x01	; 1
    1526:	98 8b       	std	Y+16, r25	; 0x10
    1528:	8f 87       	std	Y+15, r24	; 0x0f
    152a:	c3 55       	subi	r28, 0x53	; 83
    152c:	df 4f       	sbci	r29, 0xFF	; 255
    152e:	e8 81       	ld	r30, Y
    1530:	cd 5a       	subi	r28, 0xAD	; 173
    1532:	d0 40       	sbci	r29, 0x00	; 0
    1534:	ee 23       	and	r30, r30
    1536:	29 f7       	brne	.-54     	; 0x1502 <Write_A+0x682>
    1538:	c4 55       	subi	r28, 0x54	; 84
    153a:	df 4f       	sbci	r29, 0xFF	; 255
    153c:	18 82       	st	Y, r1
    153e:	cc 5a       	subi	r28, 0xAC	; 172
    1540:	d0 40       	sbci	r29, 0x00	; 0
    1542:	8d 85       	ldd	r24, Y+13	; 0x0d
    1544:	9e 85       	ldd	r25, Y+14	; 0x0e
    1546:	00 97       	sbiw	r24, 0x00	; 0
    1548:	31 f0       	breq	.+12     	; 0x1556 <Write_A+0x6d6>
    154a:	f1 e0       	ldi	r31, 0x01	; 1
    154c:	c4 55       	subi	r28, 0x54	; 84
    154e:	df 4f       	sbci	r29, 0xFF	; 255
    1550:	f8 83       	st	Y, r31
    1552:	cc 5a       	subi	r28, 0xAC	; 172
    1554:	d0 40       	sbci	r29, 0x00	; 0
    1556:	8d 85       	ldd	r24, Y+13	; 0x0d
    1558:	9e 85       	ldd	r25, Y+14	; 0x0e
    155a:	01 97       	sbiw	r24, 0x01	; 1
    155c:	9e 87       	std	Y+14, r25	; 0x0e
    155e:	8d 87       	std	Y+13, r24	; 0x0d
    1560:	c4 55       	subi	r28, 0x54	; 84
    1562:	df 4f       	sbci	r29, 0xFF	; 255
    1564:	88 81       	ld	r24, Y
    1566:	cc 5a       	subi	r28, 0xAC	; 172
    1568:	d0 40       	sbci	r29, 0x00	; 0
    156a:	88 23       	and	r24, r24
    156c:	31 f6       	brne	.-116    	; 0x14fa <Write_A+0x67a>
	DIO_u8WritePinVal(latch,0);
    156e:	83 e1       	ldi	r24, 0x13	; 19
    1570:	60 e0       	ldi	r22, 0x00	; 0
    1572:	0e 94 cd 00 	call	0x19a	; 0x19a <DIO_u8WritePinVal>

	cols(colf_A);
    1576:	ce 01       	movw	r24, r28
    1578:	8a 58       	subi	r24, 0x8A	; 138
    157a:	9f 4f       	sbci	r25, 0xFF	; 255
    157c:	0e 94 77 15 	call	0x2aee	; 0x2aee <cols>
	rows(rowf_A);
    1580:	ce 01       	movw	r24, r28
    1582:	82 58       	subi	r24, 0x82	; 130
    1584:	9f 4f       	sbci	r25, 0xFF	; 255
    1586:	0e 94 18 15 	call	0x2a30	; 0x2a30 <rows>
	DIO_u8WritePinVal(latch,1);
    158a:	83 e1       	ldi	r24, 0x13	; 19
    158c:	61 e0       	ldi	r22, 0x01	; 1
    158e:	0e 94 cd 00 	call	0x19a	; 0x19a <DIO_u8WritePinVal>
	DELAY(0.001);
    1592:	1a 86       	std	Y+10, r1	; 0x0a
    1594:	19 86       	std	Y+9, r1	; 0x09
    1596:	1f c0       	rjmp	.+62     	; 0x15d6 <Write_A+0x756>
    1598:	88 e2       	ldi	r24, 0x28	; 40
    159a:	9a e0       	ldi	r25, 0x0A	; 10
    159c:	9c 87       	std	Y+12, r25	; 0x0c
    159e:	8b 87       	std	Y+11, r24	; 0x0b
    15a0:	c5 55       	subi	r28, 0x55	; 85
    15a2:	df 4f       	sbci	r29, 0xFF	; 255
    15a4:	18 82       	st	Y, r1
    15a6:	cb 5a       	subi	r28, 0xAB	; 171
    15a8:	d0 40       	sbci	r29, 0x00	; 0
    15aa:	8b 85       	ldd	r24, Y+11	; 0x0b
    15ac:	9c 85       	ldd	r25, Y+12	; 0x0c
    15ae:	00 97       	sbiw	r24, 0x00	; 0
    15b0:	31 f0       	breq	.+12     	; 0x15be <Write_A+0x73e>
    15b2:	91 e0       	ldi	r25, 0x01	; 1
    15b4:	c5 55       	subi	r28, 0x55	; 85
    15b6:	df 4f       	sbci	r29, 0xFF	; 255
    15b8:	98 83       	st	Y, r25
    15ba:	cb 5a       	subi	r28, 0xAB	; 171
    15bc:	d0 40       	sbci	r29, 0x00	; 0
    15be:	8b 85       	ldd	r24, Y+11	; 0x0b
    15c0:	9c 85       	ldd	r25, Y+12	; 0x0c
    15c2:	01 97       	sbiw	r24, 0x01	; 1
    15c4:	9c 87       	std	Y+12, r25	; 0x0c
    15c6:	8b 87       	std	Y+11, r24	; 0x0b
    15c8:	c5 55       	subi	r28, 0x55	; 85
    15ca:	df 4f       	sbci	r29, 0xFF	; 255
    15cc:	a8 81       	ld	r26, Y
    15ce:	cb 5a       	subi	r28, 0xAB	; 171
    15d0:	d0 40       	sbci	r29, 0x00	; 0
    15d2:	aa 23       	and	r26, r26
    15d4:	29 f7       	brne	.-54     	; 0x15a0 <Write_A+0x720>
    15d6:	c6 55       	subi	r28, 0x56	; 86
    15d8:	df 4f       	sbci	r29, 0xFF	; 255
    15da:	18 82       	st	Y, r1
    15dc:	ca 5a       	subi	r28, 0xAA	; 170
    15de:	d0 40       	sbci	r29, 0x00	; 0
    15e0:	89 85       	ldd	r24, Y+9	; 0x09
    15e2:	9a 85       	ldd	r25, Y+10	; 0x0a
    15e4:	00 97       	sbiw	r24, 0x00	; 0
    15e6:	31 f0       	breq	.+12     	; 0x15f4 <Write_A+0x774>
    15e8:	b1 e0       	ldi	r27, 0x01	; 1
    15ea:	c6 55       	subi	r28, 0x56	; 86
    15ec:	df 4f       	sbci	r29, 0xFF	; 255
    15ee:	b8 83       	st	Y, r27
    15f0:	ca 5a       	subi	r28, 0xAA	; 170
    15f2:	d0 40       	sbci	r29, 0x00	; 0
    15f4:	89 85       	ldd	r24, Y+9	; 0x09
    15f6:	9a 85       	ldd	r25, Y+10	; 0x0a
    15f8:	01 97       	sbiw	r24, 0x01	; 1
    15fa:	9a 87       	std	Y+10, r25	; 0x0a
    15fc:	89 87       	std	Y+9, r24	; 0x09
    15fe:	c6 55       	subi	r28, 0x56	; 86
    1600:	df 4f       	sbci	r29, 0xFF	; 255
    1602:	e8 81       	ld	r30, Y
    1604:	ca 5a       	subi	r28, 0xAA	; 170
    1606:	d0 40       	sbci	r29, 0x00	; 0
    1608:	ee 23       	and	r30, r30
    160a:	31 f6       	brne	.-116    	; 0x1598 <Write_A+0x718>
	DIO_u8WritePinVal(latch,0);
    160c:	83 e1       	ldi	r24, 0x13	; 19
    160e:	60 e0       	ldi	r22, 0x00	; 0
    1610:	0e 94 cd 00 	call	0x19a	; 0x19a <DIO_u8WritePinVal>

	cols(colg_A);
    1614:	ce 01       	movw	r24, r28
    1616:	8a 57       	subi	r24, 0x7A	; 122
    1618:	9f 4f       	sbci	r25, 0xFF	; 255
    161a:	0e 94 77 15 	call	0x2aee	; 0x2aee <cols>
	rows(rowg_A);
    161e:	ce 01       	movw	r24, r28
    1620:	82 57       	subi	r24, 0x72	; 114
    1622:	9f 4f       	sbci	r25, 0xFF	; 255
    1624:	0e 94 18 15 	call	0x2a30	; 0x2a30 <rows>
	DIO_u8WritePinVal(latch,1);
    1628:	83 e1       	ldi	r24, 0x13	; 19
    162a:	61 e0       	ldi	r22, 0x01	; 1
    162c:	0e 94 cd 00 	call	0x19a	; 0x19a <DIO_u8WritePinVal>
	DELAY(0.001);
    1630:	1e 82       	std	Y+6, r1	; 0x06
    1632:	1d 82       	std	Y+5, r1	; 0x05
    1634:	1f c0       	rjmp	.+62     	; 0x1674 <Write_A+0x7f4>
    1636:	88 e2       	ldi	r24, 0x28	; 40
    1638:	9a e0       	ldi	r25, 0x0A	; 10
    163a:	98 87       	std	Y+8, r25	; 0x08
    163c:	8f 83       	std	Y+7, r24	; 0x07
    163e:	c7 55       	subi	r28, 0x57	; 87
    1640:	df 4f       	sbci	r29, 0xFF	; 255
    1642:	18 82       	st	Y, r1
    1644:	c9 5a       	subi	r28, 0xA9	; 169
    1646:	d0 40       	sbci	r29, 0x00	; 0
    1648:	8f 81       	ldd	r24, Y+7	; 0x07
    164a:	98 85       	ldd	r25, Y+8	; 0x08
    164c:	00 97       	sbiw	r24, 0x00	; 0
    164e:	31 f0       	breq	.+12     	; 0x165c <Write_A+0x7dc>
    1650:	f1 e0       	ldi	r31, 0x01	; 1
    1652:	c7 55       	subi	r28, 0x57	; 87
    1654:	df 4f       	sbci	r29, 0xFF	; 255
    1656:	f8 83       	st	Y, r31
    1658:	c9 5a       	subi	r28, 0xA9	; 169
    165a:	d0 40       	sbci	r29, 0x00	; 0
    165c:	8f 81       	ldd	r24, Y+7	; 0x07
    165e:	98 85       	ldd	r25, Y+8	; 0x08
    1660:	01 97       	sbiw	r24, 0x01	; 1
    1662:	98 87       	std	Y+8, r25	; 0x08
    1664:	8f 83       	std	Y+7, r24	; 0x07
    1666:	c7 55       	subi	r28, 0x57	; 87
    1668:	df 4f       	sbci	r29, 0xFF	; 255
    166a:	88 81       	ld	r24, Y
    166c:	c9 5a       	subi	r28, 0xA9	; 169
    166e:	d0 40       	sbci	r29, 0x00	; 0
    1670:	88 23       	and	r24, r24
    1672:	29 f7       	brne	.-54     	; 0x163e <Write_A+0x7be>
    1674:	c8 55       	subi	r28, 0x58	; 88
    1676:	df 4f       	sbci	r29, 0xFF	; 255
    1678:	18 82       	st	Y, r1
    167a:	c8 5a       	subi	r28, 0xA8	; 168
    167c:	d0 40       	sbci	r29, 0x00	; 0
    167e:	8d 81       	ldd	r24, Y+5	; 0x05
    1680:	9e 81       	ldd	r25, Y+6	; 0x06
    1682:	00 97       	sbiw	r24, 0x00	; 0
    1684:	31 f0       	breq	.+12     	; 0x1692 <Write_A+0x812>
    1686:	91 e0       	ldi	r25, 0x01	; 1
    1688:	c8 55       	subi	r28, 0x58	; 88
    168a:	df 4f       	sbci	r29, 0xFF	; 255
    168c:	98 83       	st	Y, r25
    168e:	c8 5a       	subi	r28, 0xA8	; 168
    1690:	d0 40       	sbci	r29, 0x00	; 0
    1692:	8d 81       	ldd	r24, Y+5	; 0x05
    1694:	9e 81       	ldd	r25, Y+6	; 0x06
    1696:	01 97       	sbiw	r24, 0x01	; 1
    1698:	9e 83       	std	Y+6, r25	; 0x06
    169a:	8d 83       	std	Y+5, r24	; 0x05
    169c:	c8 55       	subi	r28, 0x58	; 88
    169e:	df 4f       	sbci	r29, 0xFF	; 255
    16a0:	a8 81       	ld	r26, Y
    16a2:	c8 5a       	subi	r28, 0xA8	; 168
    16a4:	d0 40       	sbci	r29, 0x00	; 0
    16a6:	aa 23       	and	r26, r26
    16a8:	31 f6       	brne	.-116    	; 0x1636 <Write_A+0x7b6>
	DIO_u8WritePinVal(latch,0);
    16aa:	83 e1       	ldi	r24, 0x13	; 19
    16ac:	60 e0       	ldi	r22, 0x00	; 0
    16ae:	0e 94 cd 00 	call	0x19a	; 0x19a <DIO_u8WritePinVal>

		cols(colh_A);
    16b2:	ce 01       	movw	r24, r28
    16b4:	8a 56       	subi	r24, 0x6A	; 106
    16b6:	9f 4f       	sbci	r25, 0xFF	; 255
    16b8:	0e 94 77 15 	call	0x2aee	; 0x2aee <cols>
		rows(rowh_A);
    16bc:	ce 01       	movw	r24, r28
    16be:	82 56       	subi	r24, 0x62	; 98
    16c0:	9f 4f       	sbci	r25, 0xFF	; 255
    16c2:	0e 94 18 15 	call	0x2a30	; 0x2a30 <rows>
		DIO_u8WritePinVal(latch,1);
    16c6:	83 e1       	ldi	r24, 0x13	; 19
    16c8:	61 e0       	ldi	r22, 0x01	; 1
    16ca:	0e 94 cd 00 	call	0x19a	; 0x19a <DIO_u8WritePinVal>
		DELAY(0.001);
    16ce:	1a 82       	std	Y+2, r1	; 0x02
    16d0:	19 82       	std	Y+1, r1	; 0x01
    16d2:	1f c0       	rjmp	.+62     	; 0x1712 <Write_A+0x892>
    16d4:	88 e2       	ldi	r24, 0x28	; 40
    16d6:	9a e0       	ldi	r25, 0x0A	; 10
    16d8:	9c 83       	std	Y+4, r25	; 0x04
    16da:	8b 83       	std	Y+3, r24	; 0x03
    16dc:	c9 55       	subi	r28, 0x59	; 89
    16de:	df 4f       	sbci	r29, 0xFF	; 255
    16e0:	18 82       	st	Y, r1
    16e2:	c7 5a       	subi	r28, 0xA7	; 167
    16e4:	d0 40       	sbci	r29, 0x00	; 0
    16e6:	8b 81       	ldd	r24, Y+3	; 0x03
    16e8:	9c 81       	ldd	r25, Y+4	; 0x04
    16ea:	00 97       	sbiw	r24, 0x00	; 0
    16ec:	31 f0       	breq	.+12     	; 0x16fa <Write_A+0x87a>
    16ee:	b1 e0       	ldi	r27, 0x01	; 1
    16f0:	c9 55       	subi	r28, 0x59	; 89
    16f2:	df 4f       	sbci	r29, 0xFF	; 255
    16f4:	b8 83       	st	Y, r27
    16f6:	c7 5a       	subi	r28, 0xA7	; 167
    16f8:	d0 40       	sbci	r29, 0x00	; 0
    16fa:	8b 81       	ldd	r24, Y+3	; 0x03
    16fc:	9c 81       	ldd	r25, Y+4	; 0x04
    16fe:	01 97       	sbiw	r24, 0x01	; 1
    1700:	9c 83       	std	Y+4, r25	; 0x04
    1702:	8b 83       	std	Y+3, r24	; 0x03
    1704:	c9 55       	subi	r28, 0x59	; 89
    1706:	df 4f       	sbci	r29, 0xFF	; 255
    1708:	e8 81       	ld	r30, Y
    170a:	c7 5a       	subi	r28, 0xA7	; 167
    170c:	d0 40       	sbci	r29, 0x00	; 0
    170e:	ee 23       	and	r30, r30
    1710:	29 f7       	brne	.-54     	; 0x16dc <Write_A+0x85c>
    1712:	ca 55       	subi	r28, 0x5A	; 90
    1714:	df 4f       	sbci	r29, 0xFF	; 255
    1716:	18 82       	st	Y, r1
    1718:	c6 5a       	subi	r28, 0xA6	; 166
    171a:	d0 40       	sbci	r29, 0x00	; 0
    171c:	89 81       	ldd	r24, Y+1	; 0x01
    171e:	9a 81       	ldd	r25, Y+2	; 0x02
    1720:	00 97       	sbiw	r24, 0x00	; 0
    1722:	31 f0       	breq	.+12     	; 0x1730 <Write_A+0x8b0>
    1724:	f1 e0       	ldi	r31, 0x01	; 1
    1726:	ca 55       	subi	r28, 0x5A	; 90
    1728:	df 4f       	sbci	r29, 0xFF	; 255
    172a:	f8 83       	st	Y, r31
    172c:	c6 5a       	subi	r28, 0xA6	; 166
    172e:	d0 40       	sbci	r29, 0x00	; 0
    1730:	89 81       	ldd	r24, Y+1	; 0x01
    1732:	9a 81       	ldd	r25, Y+2	; 0x02
    1734:	01 97       	sbiw	r24, 0x01	; 1
    1736:	9a 83       	std	Y+2, r25	; 0x02
    1738:	89 83       	std	Y+1, r24	; 0x01
    173a:	ca 55       	subi	r28, 0x5A	; 90
    173c:	df 4f       	sbci	r29, 0xFF	; 255
    173e:	88 81       	ld	r24, Y
    1740:	c6 5a       	subi	r28, 0xA6	; 166
    1742:	d0 40       	sbci	r29, 0x00	; 0
    1744:	88 23       	and	r24, r24
    1746:	31 f6       	brne	.-116    	; 0x16d4 <Write_A+0x854>
		DIO_u8WritePinVal(latch,0);
    1748:	83 e1       	ldi	r24, 0x13	; 19
    174a:	60 e0       	ldi	r22, 0x00	; 0
    174c:	0e 94 cd 00 	call	0x19a	; 0x19a <DIO_u8WritePinVal>

	x-- ;
    1750:	8d a1       	ldd	r24, Y+37	; 0x25
    1752:	81 50       	subi	r24, 0x01	; 1
    1754:	8d a3       	std	Y+37, r24	; 0x25
			u8 rowg_A[]={0,0,0,1,1,1,1,1};
			u8 colh_A[]={1,1,1,1,1,1,1,0};
			u8 rowh_A[]={0,0,0,0,0,1,0,0};

		u8 x = 30 ;
	while(x)
    1756:	8d a1       	ldd	r24, Y+37	; 0x25
    1758:	88 23       	and	r24, r24
    175a:	09 f0       	breq	.+2      	; 0x175e <Write_A+0x8de>
    175c:	48 cd       	rjmp	.-1392   	; 0x11ee <Write_A+0x36e>
		DELAY(0.001);
		DIO_u8WritePinVal(latch,0);

	x-- ;
	}
}
    175e:	ca 53       	subi	r28, 0x3A	; 58
    1760:	df 4f       	sbci	r29, 0xFF	; 255
    1762:	0f b6       	in	r0, 0x3f	; 63
    1764:	f8 94       	cli
    1766:	de bf       	out	0x3e, r29	; 62
    1768:	0f be       	out	0x3f, r0	; 63
    176a:	cd bf       	out	0x3d, r28	; 61
    176c:	cf 91       	pop	r28
    176e:	df 91       	pop	r29
    1770:	08 95       	ret

00001772 <Write_D>:


void Write_D(void)
{
    1772:	df 93       	push	r29
    1774:	cf 93       	push	r28
    1776:	cd b7       	in	r28, 0x3d	; 61
    1778:	de b7       	in	r29, 0x3e	; 62
    177a:	c8 58       	subi	r28, 0x88	; 136
    177c:	d0 40       	sbci	r29, 0x00	; 0
    177e:	0f b6       	in	r0, 0x3f	; 63
    1780:	f8 94       	cli
    1782:	de bf       	out	0x3e, r29	; 62
    1784:	0f be       	out	0x3f, r0	; 63
    1786:	cd bf       	out	0x3d, r28	; 61
	//////////////D//////////////////////
	u8 cola_D[]={1,0,0,0,0,0,0,0};
    1788:	88 e0       	ldi	r24, 0x08	; 8
    178a:	fe 01       	movw	r30, r28
    178c:	76 96       	adiw	r30, 0x16	; 22
    178e:	df 01       	movw	r26, r30
    1790:	98 2f       	mov	r25, r24
    1792:	1d 92       	st	X+, r1
    1794:	9a 95       	dec	r25
    1796:	e9 f7       	brne	.-6      	; 0x1792 <Write_D+0x20>
    1798:	81 e0       	ldi	r24, 0x01	; 1
    179a:	8e 8b       	std	Y+22, r24	; 0x16
	u8 rowa_D[]={1,1,1,1,1,1,1,1};
    179c:	de 01       	movw	r26, r28
    179e:	5e 96       	adiw	r26, 0x1e	; 30
    17a0:	e2 96       	adiw	r28, 0x32	; 50
    17a2:	bf af       	std	Y+63, r27	; 0x3f
    17a4:	ae af       	std	Y+62, r26	; 0x3e
    17a6:	e2 97       	sbiw	r28, 0x32	; 50
    17a8:	e3 ed       	ldi	r30, 0xD3	; 211
    17aa:	f0 e0       	ldi	r31, 0x00	; 0
    17ac:	e4 96       	adiw	r28, 0x34	; 52
    17ae:	ff af       	std	Y+63, r31	; 0x3f
    17b0:	ee af       	std	Y+62, r30	; 0x3e
    17b2:	e4 97       	sbiw	r28, 0x34	; 52
    17b4:	f8 e0       	ldi	r31, 0x08	; 8
    17b6:	e5 96       	adiw	r28, 0x35	; 53
    17b8:	ff af       	std	Y+63, r31	; 0x3f
    17ba:	e5 97       	sbiw	r28, 0x35	; 53
    17bc:	e4 96       	adiw	r28, 0x34	; 52
    17be:	ae ad       	ldd	r26, Y+62	; 0x3e
    17c0:	bf ad       	ldd	r27, Y+63	; 0x3f
    17c2:	e4 97       	sbiw	r28, 0x34	; 52
    17c4:	0c 90       	ld	r0, X
    17c6:	e4 96       	adiw	r28, 0x34	; 52
    17c8:	ee ad       	ldd	r30, Y+62	; 0x3e
    17ca:	ff ad       	ldd	r31, Y+63	; 0x3f
    17cc:	e4 97       	sbiw	r28, 0x34	; 52
    17ce:	31 96       	adiw	r30, 0x01	; 1
    17d0:	e4 96       	adiw	r28, 0x34	; 52
    17d2:	ff af       	std	Y+63, r31	; 0x3f
    17d4:	ee af       	std	Y+62, r30	; 0x3e
    17d6:	e4 97       	sbiw	r28, 0x34	; 52
    17d8:	e2 96       	adiw	r28, 0x32	; 50
    17da:	ae ad       	ldd	r26, Y+62	; 0x3e
    17dc:	bf ad       	ldd	r27, Y+63	; 0x3f
    17de:	e2 97       	sbiw	r28, 0x32	; 50
    17e0:	0c 92       	st	X, r0
    17e2:	e2 96       	adiw	r28, 0x32	; 50
    17e4:	ee ad       	ldd	r30, Y+62	; 0x3e
    17e6:	ff ad       	ldd	r31, Y+63	; 0x3f
    17e8:	e2 97       	sbiw	r28, 0x32	; 50
    17ea:	31 96       	adiw	r30, 0x01	; 1
    17ec:	e2 96       	adiw	r28, 0x32	; 50
    17ee:	ff af       	std	Y+63, r31	; 0x3f
    17f0:	ee af       	std	Y+62, r30	; 0x3e
    17f2:	e2 97       	sbiw	r28, 0x32	; 50
    17f4:	e5 96       	adiw	r28, 0x35	; 53
    17f6:	ff ad       	ldd	r31, Y+63	; 0x3f
    17f8:	e5 97       	sbiw	r28, 0x35	; 53
    17fa:	f1 50       	subi	r31, 0x01	; 1
    17fc:	e5 96       	adiw	r28, 0x35	; 53
    17fe:	ff af       	std	Y+63, r31	; 0x3f
    1800:	e5 97       	sbiw	r28, 0x35	; 53
    1802:	e5 96       	adiw	r28, 0x35	; 53
    1804:	8f ad       	ldd	r24, Y+63	; 0x3f
    1806:	e5 97       	sbiw	r28, 0x35	; 53
    1808:	88 23       	and	r24, r24
    180a:	c1 f6       	brne	.-80     	; 0x17bc <Write_D+0x4a>
	u8 colb_D[]={0,1,0,0,0,0,0,0};
    180c:	88 e0       	ldi	r24, 0x08	; 8
    180e:	fe 01       	movw	r30, r28
    1810:	b6 96       	adiw	r30, 0x26	; 38
    1812:	df 01       	movw	r26, r30
    1814:	98 2f       	mov	r25, r24
    1816:	1d 92       	st	X+, r1
    1818:	9a 95       	dec	r25
    181a:	e9 f7       	brne	.-6      	; 0x1816 <Write_D+0xa4>
    181c:	81 e0       	ldi	r24, 0x01	; 1
    181e:	8f a3       	std	Y+39, r24	; 0x27
	u8 rowb_D[]={1,0,0,0,0,0,0,1};
    1820:	de 01       	movw	r26, r28
    1822:	9e 96       	adiw	r26, 0x2e	; 46
    1824:	e7 96       	adiw	r28, 0x37	; 55
    1826:	bf af       	std	Y+63, r27	; 0x3f
    1828:	ae af       	std	Y+62, r26	; 0x3e
    182a:	e7 97       	sbiw	r28, 0x37	; 55
    182c:	eb ec       	ldi	r30, 0xCB	; 203
    182e:	f0 e0       	ldi	r31, 0x00	; 0
    1830:	e9 96       	adiw	r28, 0x39	; 57
    1832:	ff af       	std	Y+63, r31	; 0x3f
    1834:	ee af       	std	Y+62, r30	; 0x3e
    1836:	e9 97       	sbiw	r28, 0x39	; 57
    1838:	f8 e0       	ldi	r31, 0x08	; 8
    183a:	ea 96       	adiw	r28, 0x3a	; 58
    183c:	ff af       	std	Y+63, r31	; 0x3f
    183e:	ea 97       	sbiw	r28, 0x3a	; 58
    1840:	e9 96       	adiw	r28, 0x39	; 57
    1842:	ae ad       	ldd	r26, Y+62	; 0x3e
    1844:	bf ad       	ldd	r27, Y+63	; 0x3f
    1846:	e9 97       	sbiw	r28, 0x39	; 57
    1848:	0c 90       	ld	r0, X
    184a:	e9 96       	adiw	r28, 0x39	; 57
    184c:	ee ad       	ldd	r30, Y+62	; 0x3e
    184e:	ff ad       	ldd	r31, Y+63	; 0x3f
    1850:	e9 97       	sbiw	r28, 0x39	; 57
    1852:	31 96       	adiw	r30, 0x01	; 1
    1854:	e9 96       	adiw	r28, 0x39	; 57
    1856:	ff af       	std	Y+63, r31	; 0x3f
    1858:	ee af       	std	Y+62, r30	; 0x3e
    185a:	e9 97       	sbiw	r28, 0x39	; 57
    185c:	e7 96       	adiw	r28, 0x37	; 55
    185e:	ae ad       	ldd	r26, Y+62	; 0x3e
    1860:	bf ad       	ldd	r27, Y+63	; 0x3f
    1862:	e7 97       	sbiw	r28, 0x37	; 55
    1864:	0c 92       	st	X, r0
    1866:	e7 96       	adiw	r28, 0x37	; 55
    1868:	ee ad       	ldd	r30, Y+62	; 0x3e
    186a:	ff ad       	ldd	r31, Y+63	; 0x3f
    186c:	e7 97       	sbiw	r28, 0x37	; 55
    186e:	31 96       	adiw	r30, 0x01	; 1
    1870:	e7 96       	adiw	r28, 0x37	; 55
    1872:	ff af       	std	Y+63, r31	; 0x3f
    1874:	ee af       	std	Y+62, r30	; 0x3e
    1876:	e7 97       	sbiw	r28, 0x37	; 55
    1878:	ea 96       	adiw	r28, 0x3a	; 58
    187a:	ff ad       	ldd	r31, Y+63	; 0x3f
    187c:	ea 97       	sbiw	r28, 0x3a	; 58
    187e:	f1 50       	subi	r31, 0x01	; 1
    1880:	ea 96       	adiw	r28, 0x3a	; 58
    1882:	ff af       	std	Y+63, r31	; 0x3f
    1884:	ea 97       	sbiw	r28, 0x3a	; 58
    1886:	ea 96       	adiw	r28, 0x3a	; 58
    1888:	8f ad       	ldd	r24, Y+63	; 0x3f
    188a:	ea 97       	sbiw	r28, 0x3a	; 58
    188c:	88 23       	and	r24, r24
    188e:	c1 f6       	brne	.-80     	; 0x1840 <Write_D+0xce>
	u8 colc_D[]={0,0,1,0,0,0,0,0};
    1890:	88 e0       	ldi	r24, 0x08	; 8
    1892:	fe 01       	movw	r30, r28
    1894:	f6 96       	adiw	r30, 0x36	; 54
    1896:	df 01       	movw	r26, r30
    1898:	98 2f       	mov	r25, r24
    189a:	1d 92       	st	X+, r1
    189c:	9a 95       	dec	r25
    189e:	e9 f7       	brne	.-6      	; 0x189a <Write_D+0x128>
    18a0:	81 e0       	ldi	r24, 0x01	; 1
    18a2:	88 af       	std	Y+56, r24	; 0x38
	u8 rowc_D[]={1,0,0,0,0,0,0,1};
    18a4:	de 01       	movw	r26, r28
    18a6:	de 96       	adiw	r26, 0x3e	; 62
    18a8:	ec 96       	adiw	r28, 0x3c	; 60
    18aa:	bf af       	std	Y+63, r27	; 0x3f
    18ac:	ae af       	std	Y+62, r26	; 0x3e
    18ae:	ec 97       	sbiw	r28, 0x3c	; 60
    18b0:	e3 ec       	ldi	r30, 0xC3	; 195
    18b2:	f0 e0       	ldi	r31, 0x00	; 0
    18b4:	ee 96       	adiw	r28, 0x3e	; 62
    18b6:	ff af       	std	Y+63, r31	; 0x3f
    18b8:	ee af       	std	Y+62, r30	; 0x3e
    18ba:	ee 97       	sbiw	r28, 0x3e	; 62
    18bc:	f8 e0       	ldi	r31, 0x08	; 8
    18be:	ef 96       	adiw	r28, 0x3f	; 63
    18c0:	ff af       	std	Y+63, r31	; 0x3f
    18c2:	ef 97       	sbiw	r28, 0x3f	; 63
    18c4:	ee 96       	adiw	r28, 0x3e	; 62
    18c6:	ae ad       	ldd	r26, Y+62	; 0x3e
    18c8:	bf ad       	ldd	r27, Y+63	; 0x3f
    18ca:	ee 97       	sbiw	r28, 0x3e	; 62
    18cc:	0c 90       	ld	r0, X
    18ce:	ee 96       	adiw	r28, 0x3e	; 62
    18d0:	ee ad       	ldd	r30, Y+62	; 0x3e
    18d2:	ff ad       	ldd	r31, Y+63	; 0x3f
    18d4:	ee 97       	sbiw	r28, 0x3e	; 62
    18d6:	31 96       	adiw	r30, 0x01	; 1
    18d8:	ee 96       	adiw	r28, 0x3e	; 62
    18da:	ff af       	std	Y+63, r31	; 0x3f
    18dc:	ee af       	std	Y+62, r30	; 0x3e
    18de:	ee 97       	sbiw	r28, 0x3e	; 62
    18e0:	ec 96       	adiw	r28, 0x3c	; 60
    18e2:	ae ad       	ldd	r26, Y+62	; 0x3e
    18e4:	bf ad       	ldd	r27, Y+63	; 0x3f
    18e6:	ec 97       	sbiw	r28, 0x3c	; 60
    18e8:	0c 92       	st	X, r0
    18ea:	ec 96       	adiw	r28, 0x3c	; 60
    18ec:	ee ad       	ldd	r30, Y+62	; 0x3e
    18ee:	ff ad       	ldd	r31, Y+63	; 0x3f
    18f0:	ec 97       	sbiw	r28, 0x3c	; 60
    18f2:	31 96       	adiw	r30, 0x01	; 1
    18f4:	ec 96       	adiw	r28, 0x3c	; 60
    18f6:	ff af       	std	Y+63, r31	; 0x3f
    18f8:	ee af       	std	Y+62, r30	; 0x3e
    18fa:	ec 97       	sbiw	r28, 0x3c	; 60
    18fc:	ef 96       	adiw	r28, 0x3f	; 63
    18fe:	ff ad       	ldd	r31, Y+63	; 0x3f
    1900:	ef 97       	sbiw	r28, 0x3f	; 63
    1902:	f1 50       	subi	r31, 0x01	; 1
    1904:	ef 96       	adiw	r28, 0x3f	; 63
    1906:	ff af       	std	Y+63, r31	; 0x3f
    1908:	ef 97       	sbiw	r28, 0x3f	; 63
    190a:	ef 96       	adiw	r28, 0x3f	; 63
    190c:	8f ad       	ldd	r24, Y+63	; 0x3f
    190e:	ef 97       	sbiw	r28, 0x3f	; 63
    1910:	88 23       	and	r24, r24
    1912:	c1 f6       	brne	.-80     	; 0x18c4 <Write_D+0x152>
	u8 cold_D[]={0,0,0,1,0,0,0,0};
    1914:	ce 01       	movw	r24, r28
    1916:	8a 5b       	subi	r24, 0xBA	; 186
    1918:	9f 4f       	sbci	r25, 0xFF	; 255
    191a:	28 e0       	ldi	r18, 0x08	; 8
    191c:	fc 01       	movw	r30, r24
    191e:	df 01       	movw	r26, r30
    1920:	82 2f       	mov	r24, r18
    1922:	1d 92       	st	X+, r1
    1924:	8a 95       	dec	r24
    1926:	e9 f7       	brne	.-6      	; 0x1922 <Write_D+0x1b0>
    1928:	fe 01       	movw	r30, r28
    192a:	ea 5b       	subi	r30, 0xBA	; 186
    192c:	ff 4f       	sbci	r31, 0xFF	; 255
    192e:	81 e0       	ldi	r24, 0x01	; 1
    1930:	83 83       	std	Z+3, r24	; 0x03
	u8 rowd_D[]={0,1,0,0,0,0,1,0};
    1932:	ce 01       	movw	r24, r28
    1934:	82 5b       	subi	r24, 0xB2	; 178
    1936:	9f 4f       	sbci	r25, 0xFF	; 255
    1938:	c1 58       	subi	r28, 0x81	; 129
    193a:	df 4f       	sbci	r29, 0xFF	; 255
    193c:	99 83       	std	Y+1, r25	; 0x01
    193e:	88 83       	st	Y, r24
    1940:	cf 57       	subi	r28, 0x7F	; 127
    1942:	d0 40       	sbci	r29, 0x00	; 0
    1944:	ab eb       	ldi	r26, 0xBB	; 187
    1946:	b0 e0       	ldi	r27, 0x00	; 0
    1948:	cf 57       	subi	r28, 0x7F	; 127
    194a:	df 4f       	sbci	r29, 0xFF	; 255
    194c:	b9 83       	std	Y+1, r27	; 0x01
    194e:	a8 83       	st	Y, r26
    1950:	c1 58       	subi	r28, 0x81	; 129
    1952:	d0 40       	sbci	r29, 0x00	; 0
    1954:	b8 e0       	ldi	r27, 0x08	; 8
    1956:	cd 57       	subi	r28, 0x7D	; 125
    1958:	df 4f       	sbci	r29, 0xFF	; 255
    195a:	b8 83       	st	Y, r27
    195c:	c3 58       	subi	r28, 0x83	; 131
    195e:	d0 40       	sbci	r29, 0x00	; 0
    1960:	cf 57       	subi	r28, 0x7F	; 127
    1962:	df 4f       	sbci	r29, 0xFF	; 255
    1964:	e8 81       	ld	r30, Y
    1966:	f9 81       	ldd	r31, Y+1	; 0x01
    1968:	c1 58       	subi	r28, 0x81	; 129
    196a:	d0 40       	sbci	r29, 0x00	; 0
    196c:	00 80       	ld	r0, Z
    196e:	cf 57       	subi	r28, 0x7F	; 127
    1970:	df 4f       	sbci	r29, 0xFF	; 255
    1972:	88 81       	ld	r24, Y
    1974:	99 81       	ldd	r25, Y+1	; 0x01
    1976:	c1 58       	subi	r28, 0x81	; 129
    1978:	d0 40       	sbci	r29, 0x00	; 0
    197a:	01 96       	adiw	r24, 0x01	; 1
    197c:	cf 57       	subi	r28, 0x7F	; 127
    197e:	df 4f       	sbci	r29, 0xFF	; 255
    1980:	99 83       	std	Y+1, r25	; 0x01
    1982:	88 83       	st	Y, r24
    1984:	c1 58       	subi	r28, 0x81	; 129
    1986:	d0 40       	sbci	r29, 0x00	; 0
    1988:	c1 58       	subi	r28, 0x81	; 129
    198a:	df 4f       	sbci	r29, 0xFF	; 255
    198c:	a8 81       	ld	r26, Y
    198e:	b9 81       	ldd	r27, Y+1	; 0x01
    1990:	cf 57       	subi	r28, 0x7F	; 127
    1992:	d0 40       	sbci	r29, 0x00	; 0
    1994:	0c 92       	st	X, r0
    1996:	c1 58       	subi	r28, 0x81	; 129
    1998:	df 4f       	sbci	r29, 0xFF	; 255
    199a:	e8 81       	ld	r30, Y
    199c:	f9 81       	ldd	r31, Y+1	; 0x01
    199e:	cf 57       	subi	r28, 0x7F	; 127
    19a0:	d0 40       	sbci	r29, 0x00	; 0
    19a2:	31 96       	adiw	r30, 0x01	; 1
    19a4:	c1 58       	subi	r28, 0x81	; 129
    19a6:	df 4f       	sbci	r29, 0xFF	; 255
    19a8:	f9 83       	std	Y+1, r31	; 0x01
    19aa:	e8 83       	st	Y, r30
    19ac:	cf 57       	subi	r28, 0x7F	; 127
    19ae:	d0 40       	sbci	r29, 0x00	; 0
    19b0:	cd 57       	subi	r28, 0x7D	; 125
    19b2:	df 4f       	sbci	r29, 0xFF	; 255
    19b4:	f8 81       	ld	r31, Y
    19b6:	c3 58       	subi	r28, 0x83	; 131
    19b8:	d0 40       	sbci	r29, 0x00	; 0
    19ba:	f1 50       	subi	r31, 0x01	; 1
    19bc:	cd 57       	subi	r28, 0x7D	; 125
    19be:	df 4f       	sbci	r29, 0xFF	; 255
    19c0:	f8 83       	st	Y, r31
    19c2:	c3 58       	subi	r28, 0x83	; 131
    19c4:	d0 40       	sbci	r29, 0x00	; 0
    19c6:	cd 57       	subi	r28, 0x7D	; 125
    19c8:	df 4f       	sbci	r29, 0xFF	; 255
    19ca:	88 81       	ld	r24, Y
    19cc:	c3 58       	subi	r28, 0x83	; 131
    19ce:	d0 40       	sbci	r29, 0x00	; 0
    19d0:	88 23       	and	r24, r24
    19d2:	31 f6       	brne	.-116    	; 0x1960 <Write_D+0x1ee>
	u8 cole_D[]={0,0,0,0,1,0,0,0};
    19d4:	ce 01       	movw	r24, r28
    19d6:	8a 5a       	subi	r24, 0xAA	; 170
    19d8:	9f 4f       	sbci	r25, 0xFF	; 255
    19da:	28 e0       	ldi	r18, 0x08	; 8
    19dc:	fc 01       	movw	r30, r24
    19de:	df 01       	movw	r26, r30
    19e0:	82 2f       	mov	r24, r18
    19e2:	1d 92       	st	X+, r1
    19e4:	8a 95       	dec	r24
    19e6:	e9 f7       	brne	.-6      	; 0x19e2 <Write_D+0x270>
    19e8:	fe 01       	movw	r30, r28
    19ea:	ea 5a       	subi	r30, 0xAA	; 170
    19ec:	ff 4f       	sbci	r31, 0xFF	; 255
    19ee:	81 e0       	ldi	r24, 0x01	; 1
    19f0:	84 83       	std	Z+4, r24	; 0x04
	u8 rowe_D[]={0,0,1,1,1,1,0,0};
    19f2:	ce 01       	movw	r24, r28
    19f4:	82 5a       	subi	r24, 0xA2	; 162
    19f6:	9f 4f       	sbci	r25, 0xFF	; 255
    19f8:	cc 57       	subi	r28, 0x7C	; 124
    19fa:	df 4f       	sbci	r29, 0xFF	; 255
    19fc:	99 83       	std	Y+1, r25	; 0x01
    19fe:	88 83       	st	Y, r24
    1a00:	c4 58       	subi	r28, 0x84	; 132
    1a02:	d0 40       	sbci	r29, 0x00	; 0
    1a04:	a3 eb       	ldi	r26, 0xB3	; 179
    1a06:	b0 e0       	ldi	r27, 0x00	; 0
    1a08:	ca 57       	subi	r28, 0x7A	; 122
    1a0a:	df 4f       	sbci	r29, 0xFF	; 255
    1a0c:	b9 83       	std	Y+1, r27	; 0x01
    1a0e:	a8 83       	st	Y, r26
    1a10:	c6 58       	subi	r28, 0x86	; 134
    1a12:	d0 40       	sbci	r29, 0x00	; 0
    1a14:	b8 e0       	ldi	r27, 0x08	; 8
    1a16:	c8 57       	subi	r28, 0x78	; 120
    1a18:	df 4f       	sbci	r29, 0xFF	; 255
    1a1a:	b8 83       	st	Y, r27
    1a1c:	c8 58       	subi	r28, 0x88	; 136
    1a1e:	d0 40       	sbci	r29, 0x00	; 0
    1a20:	ca 57       	subi	r28, 0x7A	; 122
    1a22:	df 4f       	sbci	r29, 0xFF	; 255
    1a24:	e8 81       	ld	r30, Y
    1a26:	f9 81       	ldd	r31, Y+1	; 0x01
    1a28:	c6 58       	subi	r28, 0x86	; 134
    1a2a:	d0 40       	sbci	r29, 0x00	; 0
    1a2c:	00 80       	ld	r0, Z
    1a2e:	ca 57       	subi	r28, 0x7A	; 122
    1a30:	df 4f       	sbci	r29, 0xFF	; 255
    1a32:	88 81       	ld	r24, Y
    1a34:	99 81       	ldd	r25, Y+1	; 0x01
    1a36:	c6 58       	subi	r28, 0x86	; 134
    1a38:	d0 40       	sbci	r29, 0x00	; 0
    1a3a:	01 96       	adiw	r24, 0x01	; 1
    1a3c:	ca 57       	subi	r28, 0x7A	; 122
    1a3e:	df 4f       	sbci	r29, 0xFF	; 255
    1a40:	99 83       	std	Y+1, r25	; 0x01
    1a42:	88 83       	st	Y, r24
    1a44:	c6 58       	subi	r28, 0x86	; 134
    1a46:	d0 40       	sbci	r29, 0x00	; 0
    1a48:	cc 57       	subi	r28, 0x7C	; 124
    1a4a:	df 4f       	sbci	r29, 0xFF	; 255
    1a4c:	a8 81       	ld	r26, Y
    1a4e:	b9 81       	ldd	r27, Y+1	; 0x01
    1a50:	c4 58       	subi	r28, 0x84	; 132
    1a52:	d0 40       	sbci	r29, 0x00	; 0
    1a54:	0c 92       	st	X, r0
    1a56:	cc 57       	subi	r28, 0x7C	; 124
    1a58:	df 4f       	sbci	r29, 0xFF	; 255
    1a5a:	e8 81       	ld	r30, Y
    1a5c:	f9 81       	ldd	r31, Y+1	; 0x01
    1a5e:	c4 58       	subi	r28, 0x84	; 132
    1a60:	d0 40       	sbci	r29, 0x00	; 0
    1a62:	31 96       	adiw	r30, 0x01	; 1
    1a64:	cc 57       	subi	r28, 0x7C	; 124
    1a66:	df 4f       	sbci	r29, 0xFF	; 255
    1a68:	f9 83       	std	Y+1, r31	; 0x01
    1a6a:	e8 83       	st	Y, r30
    1a6c:	c4 58       	subi	r28, 0x84	; 132
    1a6e:	d0 40       	sbci	r29, 0x00	; 0
    1a70:	c8 57       	subi	r28, 0x78	; 120
    1a72:	df 4f       	sbci	r29, 0xFF	; 255
    1a74:	f8 81       	ld	r31, Y
    1a76:	c8 58       	subi	r28, 0x88	; 136
    1a78:	d0 40       	sbci	r29, 0x00	; 0
    1a7a:	f1 50       	subi	r31, 0x01	; 1
    1a7c:	c8 57       	subi	r28, 0x78	; 120
    1a7e:	df 4f       	sbci	r29, 0xFF	; 255
    1a80:	f8 83       	st	Y, r31
    1a82:	c8 58       	subi	r28, 0x88	; 136
    1a84:	d0 40       	sbci	r29, 0x00	; 0
    1a86:	c8 57       	subi	r28, 0x78	; 120
    1a88:	df 4f       	sbci	r29, 0xFF	; 255
    1a8a:	88 81       	ld	r24, Y
    1a8c:	c8 58       	subi	r28, 0x88	; 136
    1a8e:	d0 40       	sbci	r29, 0x00	; 0
    1a90:	88 23       	and	r24, r24
    1a92:	31 f6       	brne	.-116    	; 0x1a20 <Write_D+0x2ae>

	u8 x =30 ;
    1a94:	8e e1       	ldi	r24, 0x1E	; 30
    1a96:	8d 8b       	std	Y+21, r24	; 0x15
    1a98:	4c c1       	rjmp	.+664    	; 0x1d32 <Write_D+0x5c0>

	while(x)
	{

    cols(cola_D);
    1a9a:	ce 01       	movw	r24, r28
    1a9c:	46 96       	adiw	r24, 0x16	; 22
    1a9e:	0e 94 77 15 	call	0x2aee	; 0x2aee <cols>
	rows(rowa_D);
    1aa2:	ce 01       	movw	r24, r28
    1aa4:	4e 96       	adiw	r24, 0x1e	; 30
    1aa6:	0e 94 18 15 	call	0x2a30	; 0x2a30 <rows>
	DIO_u8WritePinVal(latch,1);
    1aaa:	83 e1       	ldi	r24, 0x13	; 19
    1aac:	61 e0       	ldi	r22, 0x01	; 1
    1aae:	0e 94 cd 00 	call	0x19a	; 0x19a <DIO_u8WritePinVal>
	DELAY(0.001);
    1ab2:	1a 8a       	std	Y+18, r1	; 0x12
    1ab4:	19 8a       	std	Y+17, r1	; 0x11
    1ab6:	19 c0       	rjmp	.+50     	; 0x1aea <Write_D+0x378>
    1ab8:	88 e2       	ldi	r24, 0x28	; 40
    1aba:	9a e0       	ldi	r25, 0x0A	; 10
    1abc:	9c 8b       	std	Y+20, r25	; 0x14
    1abe:	8b 8b       	std	Y+19, r24	; 0x13
    1ac0:	e0 96       	adiw	r28, 0x30	; 48
    1ac2:	1f ae       	std	Y+63, r1	; 0x3f
    1ac4:	e0 97       	sbiw	r28, 0x30	; 48
    1ac6:	8b 89       	ldd	r24, Y+19	; 0x13
    1ac8:	9c 89       	ldd	r25, Y+20	; 0x14
    1aca:	00 97       	sbiw	r24, 0x00	; 0
    1acc:	21 f0       	breq	.+8      	; 0x1ad6 <Write_D+0x364>
    1ace:	91 e0       	ldi	r25, 0x01	; 1
    1ad0:	e0 96       	adiw	r28, 0x30	; 48
    1ad2:	9f af       	std	Y+63, r25	; 0x3f
    1ad4:	e0 97       	sbiw	r28, 0x30	; 48
    1ad6:	8b 89       	ldd	r24, Y+19	; 0x13
    1ad8:	9c 89       	ldd	r25, Y+20	; 0x14
    1ada:	01 97       	sbiw	r24, 0x01	; 1
    1adc:	9c 8b       	std	Y+20, r25	; 0x14
    1ade:	8b 8b       	std	Y+19, r24	; 0x13
    1ae0:	e0 96       	adiw	r28, 0x30	; 48
    1ae2:	af ad       	ldd	r26, Y+63	; 0x3f
    1ae4:	e0 97       	sbiw	r28, 0x30	; 48
    1ae6:	aa 23       	and	r26, r26
    1ae8:	59 f7       	brne	.-42     	; 0x1ac0 <Write_D+0x34e>
    1aea:	af 96       	adiw	r28, 0x2f	; 47
    1aec:	1f ae       	std	Y+63, r1	; 0x3f
    1aee:	af 97       	sbiw	r28, 0x2f	; 47
    1af0:	89 89       	ldd	r24, Y+17	; 0x11
    1af2:	9a 89       	ldd	r25, Y+18	; 0x12
    1af4:	00 97       	sbiw	r24, 0x00	; 0
    1af6:	21 f0       	breq	.+8      	; 0x1b00 <Write_D+0x38e>
    1af8:	b1 e0       	ldi	r27, 0x01	; 1
    1afa:	af 96       	adiw	r28, 0x2f	; 47
    1afc:	bf af       	std	Y+63, r27	; 0x3f
    1afe:	af 97       	sbiw	r28, 0x2f	; 47
    1b00:	89 89       	ldd	r24, Y+17	; 0x11
    1b02:	9a 89       	ldd	r25, Y+18	; 0x12
    1b04:	01 97       	sbiw	r24, 0x01	; 1
    1b06:	9a 8b       	std	Y+18, r25	; 0x12
    1b08:	89 8b       	std	Y+17, r24	; 0x11
    1b0a:	af 96       	adiw	r28, 0x2f	; 47
    1b0c:	ef ad       	ldd	r30, Y+63	; 0x3f
    1b0e:	af 97       	sbiw	r28, 0x2f	; 47
    1b10:	ee 23       	and	r30, r30
    1b12:	91 f6       	brne	.-92     	; 0x1ab8 <Write_D+0x346>
	DIO_u8WritePinVal(latch,0);
    1b14:	83 e1       	ldi	r24, 0x13	; 19
    1b16:	60 e0       	ldi	r22, 0x00	; 0
    1b18:	0e 94 cd 00 	call	0x19a	; 0x19a <DIO_u8WritePinVal>

	cols(colb_D);
    1b1c:	ce 01       	movw	r24, r28
    1b1e:	86 96       	adiw	r24, 0x26	; 38
    1b20:	0e 94 77 15 	call	0x2aee	; 0x2aee <cols>
	rows(rowb_D);
    1b24:	ce 01       	movw	r24, r28
    1b26:	8e 96       	adiw	r24, 0x2e	; 46
    1b28:	0e 94 18 15 	call	0x2a30	; 0x2a30 <rows>
	DIO_u8WritePinVal(latch,1);
    1b2c:	83 e1       	ldi	r24, 0x13	; 19
    1b2e:	61 e0       	ldi	r22, 0x01	; 1
    1b30:	0e 94 cd 00 	call	0x19a	; 0x19a <DIO_u8WritePinVal>
	DELAY(0.001);
    1b34:	1e 86       	std	Y+14, r1	; 0x0e
    1b36:	1d 86       	std	Y+13, r1	; 0x0d
    1b38:	19 c0       	rjmp	.+50     	; 0x1b6c <Write_D+0x3fa>
    1b3a:	88 e2       	ldi	r24, 0x28	; 40
    1b3c:	9a e0       	ldi	r25, 0x0A	; 10
    1b3e:	98 8b       	std	Y+16, r25	; 0x10
    1b40:	8f 87       	std	Y+15, r24	; 0x0f
    1b42:	ae 96       	adiw	r28, 0x2e	; 46
    1b44:	1f ae       	std	Y+63, r1	; 0x3f
    1b46:	ae 97       	sbiw	r28, 0x2e	; 46
    1b48:	8f 85       	ldd	r24, Y+15	; 0x0f
    1b4a:	98 89       	ldd	r25, Y+16	; 0x10
    1b4c:	00 97       	sbiw	r24, 0x00	; 0
    1b4e:	21 f0       	breq	.+8      	; 0x1b58 <Write_D+0x3e6>
    1b50:	f1 e0       	ldi	r31, 0x01	; 1
    1b52:	ae 96       	adiw	r28, 0x2e	; 46
    1b54:	ff af       	std	Y+63, r31	; 0x3f
    1b56:	ae 97       	sbiw	r28, 0x2e	; 46
    1b58:	8f 85       	ldd	r24, Y+15	; 0x0f
    1b5a:	98 89       	ldd	r25, Y+16	; 0x10
    1b5c:	01 97       	sbiw	r24, 0x01	; 1
    1b5e:	98 8b       	std	Y+16, r25	; 0x10
    1b60:	8f 87       	std	Y+15, r24	; 0x0f
    1b62:	ae 96       	adiw	r28, 0x2e	; 46
    1b64:	8f ad       	ldd	r24, Y+63	; 0x3f
    1b66:	ae 97       	sbiw	r28, 0x2e	; 46
    1b68:	88 23       	and	r24, r24
    1b6a:	59 f7       	brne	.-42     	; 0x1b42 <Write_D+0x3d0>
    1b6c:	ad 96       	adiw	r28, 0x2d	; 45
    1b6e:	1f ae       	std	Y+63, r1	; 0x3f
    1b70:	ad 97       	sbiw	r28, 0x2d	; 45
    1b72:	8d 85       	ldd	r24, Y+13	; 0x0d
    1b74:	9e 85       	ldd	r25, Y+14	; 0x0e
    1b76:	00 97       	sbiw	r24, 0x00	; 0
    1b78:	21 f0       	breq	.+8      	; 0x1b82 <Write_D+0x410>
    1b7a:	91 e0       	ldi	r25, 0x01	; 1
    1b7c:	ad 96       	adiw	r28, 0x2d	; 45
    1b7e:	9f af       	std	Y+63, r25	; 0x3f
    1b80:	ad 97       	sbiw	r28, 0x2d	; 45
    1b82:	8d 85       	ldd	r24, Y+13	; 0x0d
    1b84:	9e 85       	ldd	r25, Y+14	; 0x0e
    1b86:	01 97       	sbiw	r24, 0x01	; 1
    1b88:	9e 87       	std	Y+14, r25	; 0x0e
    1b8a:	8d 87       	std	Y+13, r24	; 0x0d
    1b8c:	ad 96       	adiw	r28, 0x2d	; 45
    1b8e:	af ad       	ldd	r26, Y+63	; 0x3f
    1b90:	ad 97       	sbiw	r28, 0x2d	; 45
    1b92:	aa 23       	and	r26, r26
    1b94:	91 f6       	brne	.-92     	; 0x1b3a <Write_D+0x3c8>
	DIO_u8WritePinVal(latch,0);
    1b96:	83 e1       	ldi	r24, 0x13	; 19
    1b98:	60 e0       	ldi	r22, 0x00	; 0
    1b9a:	0e 94 cd 00 	call	0x19a	; 0x19a <DIO_u8WritePinVal>

	cols(colc_D);
    1b9e:	ce 01       	movw	r24, r28
    1ba0:	c6 96       	adiw	r24, 0x36	; 54
    1ba2:	0e 94 77 15 	call	0x2aee	; 0x2aee <cols>
	rows(rowc_D);
    1ba6:	ce 01       	movw	r24, r28
    1ba8:	ce 96       	adiw	r24, 0x3e	; 62
    1baa:	0e 94 18 15 	call	0x2a30	; 0x2a30 <rows>
    DIO_u8WritePinVal(latch,1);
    1bae:	83 e1       	ldi	r24, 0x13	; 19
    1bb0:	61 e0       	ldi	r22, 0x01	; 1
    1bb2:	0e 94 cd 00 	call	0x19a	; 0x19a <DIO_u8WritePinVal>
    DELAY(0.001);
    1bb6:	1a 86       	std	Y+10, r1	; 0x0a
    1bb8:	19 86       	std	Y+9, r1	; 0x09
    1bba:	19 c0       	rjmp	.+50     	; 0x1bee <Write_D+0x47c>
    1bbc:	88 e2       	ldi	r24, 0x28	; 40
    1bbe:	9a e0       	ldi	r25, 0x0A	; 10
    1bc0:	9c 87       	std	Y+12, r25	; 0x0c
    1bc2:	8b 87       	std	Y+11, r24	; 0x0b
    1bc4:	ac 96       	adiw	r28, 0x2c	; 44
    1bc6:	1f ae       	std	Y+63, r1	; 0x3f
    1bc8:	ac 97       	sbiw	r28, 0x2c	; 44
    1bca:	8b 85       	ldd	r24, Y+11	; 0x0b
    1bcc:	9c 85       	ldd	r25, Y+12	; 0x0c
    1bce:	00 97       	sbiw	r24, 0x00	; 0
    1bd0:	21 f0       	breq	.+8      	; 0x1bda <Write_D+0x468>
    1bd2:	b1 e0       	ldi	r27, 0x01	; 1
    1bd4:	ac 96       	adiw	r28, 0x2c	; 44
    1bd6:	bf af       	std	Y+63, r27	; 0x3f
    1bd8:	ac 97       	sbiw	r28, 0x2c	; 44
    1bda:	8b 85       	ldd	r24, Y+11	; 0x0b
    1bdc:	9c 85       	ldd	r25, Y+12	; 0x0c
    1bde:	01 97       	sbiw	r24, 0x01	; 1
    1be0:	9c 87       	std	Y+12, r25	; 0x0c
    1be2:	8b 87       	std	Y+11, r24	; 0x0b
    1be4:	ac 96       	adiw	r28, 0x2c	; 44
    1be6:	ef ad       	ldd	r30, Y+63	; 0x3f
    1be8:	ac 97       	sbiw	r28, 0x2c	; 44
    1bea:	ee 23       	and	r30, r30
    1bec:	59 f7       	brne	.-42     	; 0x1bc4 <Write_D+0x452>
    1bee:	ab 96       	adiw	r28, 0x2b	; 43
    1bf0:	1f ae       	std	Y+63, r1	; 0x3f
    1bf2:	ab 97       	sbiw	r28, 0x2b	; 43
    1bf4:	89 85       	ldd	r24, Y+9	; 0x09
    1bf6:	9a 85       	ldd	r25, Y+10	; 0x0a
    1bf8:	00 97       	sbiw	r24, 0x00	; 0
    1bfa:	21 f0       	breq	.+8      	; 0x1c04 <Write_D+0x492>
    1bfc:	f1 e0       	ldi	r31, 0x01	; 1
    1bfe:	ab 96       	adiw	r28, 0x2b	; 43
    1c00:	ff af       	std	Y+63, r31	; 0x3f
    1c02:	ab 97       	sbiw	r28, 0x2b	; 43
    1c04:	89 85       	ldd	r24, Y+9	; 0x09
    1c06:	9a 85       	ldd	r25, Y+10	; 0x0a
    1c08:	01 97       	sbiw	r24, 0x01	; 1
    1c0a:	9a 87       	std	Y+10, r25	; 0x0a
    1c0c:	89 87       	std	Y+9, r24	; 0x09
    1c0e:	ab 96       	adiw	r28, 0x2b	; 43
    1c10:	8f ad       	ldd	r24, Y+63	; 0x3f
    1c12:	ab 97       	sbiw	r28, 0x2b	; 43
    1c14:	88 23       	and	r24, r24
    1c16:	91 f6       	brne	.-92     	; 0x1bbc <Write_D+0x44a>
    DIO_u8WritePinVal(latch,0);
    1c18:	83 e1       	ldi	r24, 0x13	; 19
    1c1a:	60 e0       	ldi	r22, 0x00	; 0
    1c1c:	0e 94 cd 00 	call	0x19a	; 0x19a <DIO_u8WritePinVal>

    cols(cold_D);
    1c20:	ce 01       	movw	r24, r28
    1c22:	8a 5b       	subi	r24, 0xBA	; 186
    1c24:	9f 4f       	sbci	r25, 0xFF	; 255
    1c26:	0e 94 77 15 	call	0x2aee	; 0x2aee <cols>
	rows(rowd_D);
    1c2a:	ce 01       	movw	r24, r28
    1c2c:	82 5b       	subi	r24, 0xB2	; 178
    1c2e:	9f 4f       	sbci	r25, 0xFF	; 255
    1c30:	0e 94 18 15 	call	0x2a30	; 0x2a30 <rows>
	DIO_u8WritePinVal(latch,1);
    1c34:	83 e1       	ldi	r24, 0x13	; 19
    1c36:	61 e0       	ldi	r22, 0x01	; 1
    1c38:	0e 94 cd 00 	call	0x19a	; 0x19a <DIO_u8WritePinVal>
	DELAY(0.001);
    1c3c:	1e 82       	std	Y+6, r1	; 0x06
    1c3e:	1d 82       	std	Y+5, r1	; 0x05
    1c40:	19 c0       	rjmp	.+50     	; 0x1c74 <Write_D+0x502>
    1c42:	88 e2       	ldi	r24, 0x28	; 40
    1c44:	9a e0       	ldi	r25, 0x0A	; 10
    1c46:	98 87       	std	Y+8, r25	; 0x08
    1c48:	8f 83       	std	Y+7, r24	; 0x07
    1c4a:	aa 96       	adiw	r28, 0x2a	; 42
    1c4c:	1f ae       	std	Y+63, r1	; 0x3f
    1c4e:	aa 97       	sbiw	r28, 0x2a	; 42
    1c50:	8f 81       	ldd	r24, Y+7	; 0x07
    1c52:	98 85       	ldd	r25, Y+8	; 0x08
    1c54:	00 97       	sbiw	r24, 0x00	; 0
    1c56:	21 f0       	breq	.+8      	; 0x1c60 <Write_D+0x4ee>
    1c58:	91 e0       	ldi	r25, 0x01	; 1
    1c5a:	aa 96       	adiw	r28, 0x2a	; 42
    1c5c:	9f af       	std	Y+63, r25	; 0x3f
    1c5e:	aa 97       	sbiw	r28, 0x2a	; 42
    1c60:	8f 81       	ldd	r24, Y+7	; 0x07
    1c62:	98 85       	ldd	r25, Y+8	; 0x08
    1c64:	01 97       	sbiw	r24, 0x01	; 1
    1c66:	98 87       	std	Y+8, r25	; 0x08
    1c68:	8f 83       	std	Y+7, r24	; 0x07
    1c6a:	aa 96       	adiw	r28, 0x2a	; 42
    1c6c:	af ad       	ldd	r26, Y+63	; 0x3f
    1c6e:	aa 97       	sbiw	r28, 0x2a	; 42
    1c70:	aa 23       	and	r26, r26
    1c72:	59 f7       	brne	.-42     	; 0x1c4a <Write_D+0x4d8>
    1c74:	a9 96       	adiw	r28, 0x29	; 41
    1c76:	1f ae       	std	Y+63, r1	; 0x3f
    1c78:	a9 97       	sbiw	r28, 0x29	; 41
    1c7a:	8d 81       	ldd	r24, Y+5	; 0x05
    1c7c:	9e 81       	ldd	r25, Y+6	; 0x06
    1c7e:	00 97       	sbiw	r24, 0x00	; 0
    1c80:	21 f0       	breq	.+8      	; 0x1c8a <Write_D+0x518>
    1c82:	b1 e0       	ldi	r27, 0x01	; 1
    1c84:	a9 96       	adiw	r28, 0x29	; 41
    1c86:	bf af       	std	Y+63, r27	; 0x3f
    1c88:	a9 97       	sbiw	r28, 0x29	; 41
    1c8a:	8d 81       	ldd	r24, Y+5	; 0x05
    1c8c:	9e 81       	ldd	r25, Y+6	; 0x06
    1c8e:	01 97       	sbiw	r24, 0x01	; 1
    1c90:	9e 83       	std	Y+6, r25	; 0x06
    1c92:	8d 83       	std	Y+5, r24	; 0x05
    1c94:	a9 96       	adiw	r28, 0x29	; 41
    1c96:	ef ad       	ldd	r30, Y+63	; 0x3f
    1c98:	a9 97       	sbiw	r28, 0x29	; 41
    1c9a:	ee 23       	and	r30, r30
    1c9c:	91 f6       	brne	.-92     	; 0x1c42 <Write_D+0x4d0>
	DIO_u8WritePinVal(latch,0);
    1c9e:	83 e1       	ldi	r24, 0x13	; 19
    1ca0:	60 e0       	ldi	r22, 0x00	; 0
    1ca2:	0e 94 cd 00 	call	0x19a	; 0x19a <DIO_u8WritePinVal>

	cols(cole_D);
    1ca6:	ce 01       	movw	r24, r28
    1ca8:	8a 5a       	subi	r24, 0xAA	; 170
    1caa:	9f 4f       	sbci	r25, 0xFF	; 255
    1cac:	0e 94 77 15 	call	0x2aee	; 0x2aee <cols>
	rows(rowe_D);
    1cb0:	ce 01       	movw	r24, r28
    1cb2:	82 5a       	subi	r24, 0xA2	; 162
    1cb4:	9f 4f       	sbci	r25, 0xFF	; 255
    1cb6:	0e 94 18 15 	call	0x2a30	; 0x2a30 <rows>
    DIO_u8WritePinVal(latch,1);
    1cba:	83 e1       	ldi	r24, 0x13	; 19
    1cbc:	61 e0       	ldi	r22, 0x01	; 1
    1cbe:	0e 94 cd 00 	call	0x19a	; 0x19a <DIO_u8WritePinVal>
    DELAY(0.001);
    1cc2:	1a 82       	std	Y+2, r1	; 0x02
    1cc4:	19 82       	std	Y+1, r1	; 0x01
    1cc6:	19 c0       	rjmp	.+50     	; 0x1cfa <Write_D+0x588>
    1cc8:	88 e2       	ldi	r24, 0x28	; 40
    1cca:	9a e0       	ldi	r25, 0x0A	; 10
    1ccc:	9c 83       	std	Y+4, r25	; 0x04
    1cce:	8b 83       	std	Y+3, r24	; 0x03
    1cd0:	a8 96       	adiw	r28, 0x28	; 40
    1cd2:	1f ae       	std	Y+63, r1	; 0x3f
    1cd4:	a8 97       	sbiw	r28, 0x28	; 40
    1cd6:	8b 81       	ldd	r24, Y+3	; 0x03
    1cd8:	9c 81       	ldd	r25, Y+4	; 0x04
    1cda:	00 97       	sbiw	r24, 0x00	; 0
    1cdc:	21 f0       	breq	.+8      	; 0x1ce6 <Write_D+0x574>
    1cde:	f1 e0       	ldi	r31, 0x01	; 1
    1ce0:	a8 96       	adiw	r28, 0x28	; 40
    1ce2:	ff af       	std	Y+63, r31	; 0x3f
    1ce4:	a8 97       	sbiw	r28, 0x28	; 40
    1ce6:	8b 81       	ldd	r24, Y+3	; 0x03
    1ce8:	9c 81       	ldd	r25, Y+4	; 0x04
    1cea:	01 97       	sbiw	r24, 0x01	; 1
    1cec:	9c 83       	std	Y+4, r25	; 0x04
    1cee:	8b 83       	std	Y+3, r24	; 0x03
    1cf0:	a8 96       	adiw	r28, 0x28	; 40
    1cf2:	8f ad       	ldd	r24, Y+63	; 0x3f
    1cf4:	a8 97       	sbiw	r28, 0x28	; 40
    1cf6:	88 23       	and	r24, r24
    1cf8:	59 f7       	brne	.-42     	; 0x1cd0 <Write_D+0x55e>
    1cfa:	a7 96       	adiw	r28, 0x27	; 39
    1cfc:	1f ae       	std	Y+63, r1	; 0x3f
    1cfe:	a7 97       	sbiw	r28, 0x27	; 39
    1d00:	89 81       	ldd	r24, Y+1	; 0x01
    1d02:	9a 81       	ldd	r25, Y+2	; 0x02
    1d04:	00 97       	sbiw	r24, 0x00	; 0
    1d06:	21 f0       	breq	.+8      	; 0x1d10 <Write_D+0x59e>
    1d08:	91 e0       	ldi	r25, 0x01	; 1
    1d0a:	a7 96       	adiw	r28, 0x27	; 39
    1d0c:	9f af       	std	Y+63, r25	; 0x3f
    1d0e:	a7 97       	sbiw	r28, 0x27	; 39
    1d10:	89 81       	ldd	r24, Y+1	; 0x01
    1d12:	9a 81       	ldd	r25, Y+2	; 0x02
    1d14:	01 97       	sbiw	r24, 0x01	; 1
    1d16:	9a 83       	std	Y+2, r25	; 0x02
    1d18:	89 83       	std	Y+1, r24	; 0x01
    1d1a:	a7 96       	adiw	r28, 0x27	; 39
    1d1c:	af ad       	ldd	r26, Y+63	; 0x3f
    1d1e:	a7 97       	sbiw	r28, 0x27	; 39
    1d20:	aa 23       	and	r26, r26
    1d22:	91 f6       	brne	.-92     	; 0x1cc8 <Write_D+0x556>
    DIO_u8WritePinVal(latch,0);
    1d24:	83 e1       	ldi	r24, 0x13	; 19
    1d26:	60 e0       	ldi	r22, 0x00	; 0
    1d28:	0e 94 cd 00 	call	0x19a	; 0x19a <DIO_u8WritePinVal>
     x-- ;
    1d2c:	8d 89       	ldd	r24, Y+21	; 0x15
    1d2e:	81 50       	subi	r24, 0x01	; 1
    1d30:	8d 8b       	std	Y+21, r24	; 0x15
	u8 cole_D[]={0,0,0,0,1,0,0,0};
	u8 rowe_D[]={0,0,1,1,1,1,0,0};

	u8 x =30 ;

	while(x)
    1d32:	8d 89       	ldd	r24, Y+21	; 0x15
    1d34:	88 23       	and	r24, r24
    1d36:	09 f0       	breq	.+2      	; 0x1d3a <Write_D+0x5c8>
    1d38:	b0 ce       	rjmp	.-672    	; 0x1a9a <Write_D+0x328>
    DIO_u8WritePinVal(latch,0);
     x-- ;
	}


}
    1d3a:	c8 57       	subi	r28, 0x78	; 120
    1d3c:	df 4f       	sbci	r29, 0xFF	; 255
    1d3e:	0f b6       	in	r0, 0x3f	; 63
    1d40:	f8 94       	cli
    1d42:	de bf       	out	0x3e, r29	; 62
    1d44:	0f be       	out	0x3f, r0	; 63
    1d46:	cd bf       	out	0x3d, r28	; 61
    1d48:	cf 91       	pop	r28
    1d4a:	df 91       	pop	r29
    1d4c:	08 95       	ret

00001d4e <Write_O>:

void Write_O(void)
{
    1d4e:	df 93       	push	r29
    1d50:	cf 93       	push	r28
    1d52:	cd b7       	in	r28, 0x3d	; 61
    1d54:	de b7       	in	r29, 0x3e	; 62
    1d56:	ce 5b       	subi	r28, 0xBE	; 190
    1d58:	d0 40       	sbci	r29, 0x00	; 0
    1d5a:	0f b6       	in	r0, 0x3f	; 63
    1d5c:	f8 94       	cli
    1d5e:	de bf       	out	0x3e, r29	; 62
    1d60:	0f be       	out	0x3f, r0	; 63
    1d62:	cd bf       	out	0x3d, r28	; 61
	//////////////D//////////////////////
		u8 cola_O[]={1,0,0,0,0,0,0,0};
    1d64:	88 e0       	ldi	r24, 0x08	; 8
    1d66:	fe 01       	movw	r30, r28
    1d68:	7e 96       	adiw	r30, 0x1e	; 30
    1d6a:	df 01       	movw	r26, r30
    1d6c:	98 2f       	mov	r25, r24
    1d6e:	1d 92       	st	X+, r1
    1d70:	9a 95       	dec	r25
    1d72:	e9 f7       	brne	.-6      	; 0x1d6e <Write_O+0x20>
    1d74:	81 e0       	ldi	r24, 0x01	; 1
    1d76:	8e 8f       	std	Y+30, r24	; 0x1e
		u8 rowa_O[]={0,0,1,1,1,1,0,0};
    1d78:	de 01       	movw	r26, r28
    1d7a:	96 96       	adiw	r26, 0x26	; 38
    1d7c:	c4 56       	subi	r28, 0x64	; 100
    1d7e:	df 4f       	sbci	r29, 0xFF	; 255
    1d80:	b9 83       	std	Y+1, r27	; 0x01
    1d82:	a8 83       	st	Y, r26
    1d84:	cc 59       	subi	r28, 0x9C	; 156
    1d86:	d0 40       	sbci	r29, 0x00	; 0
    1d88:	eb e0       	ldi	r30, 0x0B	; 11
    1d8a:	f1 e0       	ldi	r31, 0x01	; 1
    1d8c:	c2 56       	subi	r28, 0x62	; 98
    1d8e:	df 4f       	sbci	r29, 0xFF	; 255
    1d90:	f9 83       	std	Y+1, r31	; 0x01
    1d92:	e8 83       	st	Y, r30
    1d94:	ce 59       	subi	r28, 0x9E	; 158
    1d96:	d0 40       	sbci	r29, 0x00	; 0
    1d98:	f8 e0       	ldi	r31, 0x08	; 8
    1d9a:	c0 56       	subi	r28, 0x60	; 96
    1d9c:	df 4f       	sbci	r29, 0xFF	; 255
    1d9e:	f8 83       	st	Y, r31
    1da0:	c0 5a       	subi	r28, 0xA0	; 160
    1da2:	d0 40       	sbci	r29, 0x00	; 0
    1da4:	c2 56       	subi	r28, 0x62	; 98
    1da6:	df 4f       	sbci	r29, 0xFF	; 255
    1da8:	a8 81       	ld	r26, Y
    1daa:	b9 81       	ldd	r27, Y+1	; 0x01
    1dac:	ce 59       	subi	r28, 0x9E	; 158
    1dae:	d0 40       	sbci	r29, 0x00	; 0
    1db0:	0c 90       	ld	r0, X
    1db2:	c2 56       	subi	r28, 0x62	; 98
    1db4:	df 4f       	sbci	r29, 0xFF	; 255
    1db6:	e8 81       	ld	r30, Y
    1db8:	f9 81       	ldd	r31, Y+1	; 0x01
    1dba:	ce 59       	subi	r28, 0x9E	; 158
    1dbc:	d0 40       	sbci	r29, 0x00	; 0
    1dbe:	31 96       	adiw	r30, 0x01	; 1
    1dc0:	c2 56       	subi	r28, 0x62	; 98
    1dc2:	df 4f       	sbci	r29, 0xFF	; 255
    1dc4:	f9 83       	std	Y+1, r31	; 0x01
    1dc6:	e8 83       	st	Y, r30
    1dc8:	ce 59       	subi	r28, 0x9E	; 158
    1dca:	d0 40       	sbci	r29, 0x00	; 0
    1dcc:	c4 56       	subi	r28, 0x64	; 100
    1dce:	df 4f       	sbci	r29, 0xFF	; 255
    1dd0:	a8 81       	ld	r26, Y
    1dd2:	b9 81       	ldd	r27, Y+1	; 0x01
    1dd4:	cc 59       	subi	r28, 0x9C	; 156
    1dd6:	d0 40       	sbci	r29, 0x00	; 0
    1dd8:	0c 92       	st	X, r0
    1dda:	c4 56       	subi	r28, 0x64	; 100
    1ddc:	df 4f       	sbci	r29, 0xFF	; 255
    1dde:	e8 81       	ld	r30, Y
    1de0:	f9 81       	ldd	r31, Y+1	; 0x01
    1de2:	cc 59       	subi	r28, 0x9C	; 156
    1de4:	d0 40       	sbci	r29, 0x00	; 0
    1de6:	31 96       	adiw	r30, 0x01	; 1
    1de8:	c4 56       	subi	r28, 0x64	; 100
    1dea:	df 4f       	sbci	r29, 0xFF	; 255
    1dec:	f9 83       	std	Y+1, r31	; 0x01
    1dee:	e8 83       	st	Y, r30
    1df0:	cc 59       	subi	r28, 0x9C	; 156
    1df2:	d0 40       	sbci	r29, 0x00	; 0
    1df4:	c0 56       	subi	r28, 0x60	; 96
    1df6:	df 4f       	sbci	r29, 0xFF	; 255
    1df8:	f8 81       	ld	r31, Y
    1dfa:	c0 5a       	subi	r28, 0xA0	; 160
    1dfc:	d0 40       	sbci	r29, 0x00	; 0
    1dfe:	f1 50       	subi	r31, 0x01	; 1
    1e00:	c0 56       	subi	r28, 0x60	; 96
    1e02:	df 4f       	sbci	r29, 0xFF	; 255
    1e04:	f8 83       	st	Y, r31
    1e06:	c0 5a       	subi	r28, 0xA0	; 160
    1e08:	d0 40       	sbci	r29, 0x00	; 0
    1e0a:	c0 56       	subi	r28, 0x60	; 96
    1e0c:	df 4f       	sbci	r29, 0xFF	; 255
    1e0e:	88 81       	ld	r24, Y
    1e10:	c0 5a       	subi	r28, 0xA0	; 160
    1e12:	d0 40       	sbci	r29, 0x00	; 0
    1e14:	88 23       	and	r24, r24
    1e16:	31 f6       	brne	.-116    	; 0x1da4 <Write_O+0x56>
		u8 colb_O[]={0,1,0,0,0,0,0,0};
    1e18:	88 e0       	ldi	r24, 0x08	; 8
    1e1a:	fe 01       	movw	r30, r28
    1e1c:	be 96       	adiw	r30, 0x2e	; 46
    1e1e:	df 01       	movw	r26, r30
    1e20:	98 2f       	mov	r25, r24
    1e22:	1d 92       	st	X+, r1
    1e24:	9a 95       	dec	r25
    1e26:	e9 f7       	brne	.-6      	; 0x1e22 <Write_O+0xd4>
    1e28:	81 e0       	ldi	r24, 0x01	; 1
    1e2a:	8f a7       	std	Y+47, r24	; 0x2f
		u8 rowb_O[]={0,1,0,0,0,0,1,0};
    1e2c:	de 01       	movw	r26, r28
    1e2e:	d6 96       	adiw	r26, 0x36	; 54
    1e30:	cf 55       	subi	r28, 0x5F	; 95
    1e32:	df 4f       	sbci	r29, 0xFF	; 255
    1e34:	b9 83       	std	Y+1, r27	; 0x01
    1e36:	a8 83       	st	Y, r26
    1e38:	c1 5a       	subi	r28, 0xA1	; 161
    1e3a:	d0 40       	sbci	r29, 0x00	; 0
    1e3c:	e3 e0       	ldi	r30, 0x03	; 3
    1e3e:	f1 e0       	ldi	r31, 0x01	; 1
    1e40:	cd 55       	subi	r28, 0x5D	; 93
    1e42:	df 4f       	sbci	r29, 0xFF	; 255
    1e44:	f9 83       	std	Y+1, r31	; 0x01
    1e46:	e8 83       	st	Y, r30
    1e48:	c3 5a       	subi	r28, 0xA3	; 163
    1e4a:	d0 40       	sbci	r29, 0x00	; 0
    1e4c:	f8 e0       	ldi	r31, 0x08	; 8
    1e4e:	cb 55       	subi	r28, 0x5B	; 91
    1e50:	df 4f       	sbci	r29, 0xFF	; 255
    1e52:	f8 83       	st	Y, r31
    1e54:	c5 5a       	subi	r28, 0xA5	; 165
    1e56:	d0 40       	sbci	r29, 0x00	; 0
    1e58:	cd 55       	subi	r28, 0x5D	; 93
    1e5a:	df 4f       	sbci	r29, 0xFF	; 255
    1e5c:	a8 81       	ld	r26, Y
    1e5e:	b9 81       	ldd	r27, Y+1	; 0x01
    1e60:	c3 5a       	subi	r28, 0xA3	; 163
    1e62:	d0 40       	sbci	r29, 0x00	; 0
    1e64:	0c 90       	ld	r0, X
    1e66:	cd 55       	subi	r28, 0x5D	; 93
    1e68:	df 4f       	sbci	r29, 0xFF	; 255
    1e6a:	e8 81       	ld	r30, Y
    1e6c:	f9 81       	ldd	r31, Y+1	; 0x01
    1e6e:	c3 5a       	subi	r28, 0xA3	; 163
    1e70:	d0 40       	sbci	r29, 0x00	; 0
    1e72:	31 96       	adiw	r30, 0x01	; 1
    1e74:	cd 55       	subi	r28, 0x5D	; 93
    1e76:	df 4f       	sbci	r29, 0xFF	; 255
    1e78:	f9 83       	std	Y+1, r31	; 0x01
    1e7a:	e8 83       	st	Y, r30
    1e7c:	c3 5a       	subi	r28, 0xA3	; 163
    1e7e:	d0 40       	sbci	r29, 0x00	; 0
    1e80:	cf 55       	subi	r28, 0x5F	; 95
    1e82:	df 4f       	sbci	r29, 0xFF	; 255
    1e84:	a8 81       	ld	r26, Y
    1e86:	b9 81       	ldd	r27, Y+1	; 0x01
    1e88:	c1 5a       	subi	r28, 0xA1	; 161
    1e8a:	d0 40       	sbci	r29, 0x00	; 0
    1e8c:	0c 92       	st	X, r0
    1e8e:	cf 55       	subi	r28, 0x5F	; 95
    1e90:	df 4f       	sbci	r29, 0xFF	; 255
    1e92:	e8 81       	ld	r30, Y
    1e94:	f9 81       	ldd	r31, Y+1	; 0x01
    1e96:	c1 5a       	subi	r28, 0xA1	; 161
    1e98:	d0 40       	sbci	r29, 0x00	; 0
    1e9a:	31 96       	adiw	r30, 0x01	; 1
    1e9c:	cf 55       	subi	r28, 0x5F	; 95
    1e9e:	df 4f       	sbci	r29, 0xFF	; 255
    1ea0:	f9 83       	std	Y+1, r31	; 0x01
    1ea2:	e8 83       	st	Y, r30
    1ea4:	c1 5a       	subi	r28, 0xA1	; 161
    1ea6:	d0 40       	sbci	r29, 0x00	; 0
    1ea8:	cb 55       	subi	r28, 0x5B	; 91
    1eaa:	df 4f       	sbci	r29, 0xFF	; 255
    1eac:	f8 81       	ld	r31, Y
    1eae:	c5 5a       	subi	r28, 0xA5	; 165
    1eb0:	d0 40       	sbci	r29, 0x00	; 0
    1eb2:	f1 50       	subi	r31, 0x01	; 1
    1eb4:	cb 55       	subi	r28, 0x5B	; 91
    1eb6:	df 4f       	sbci	r29, 0xFF	; 255
    1eb8:	f8 83       	st	Y, r31
    1eba:	c5 5a       	subi	r28, 0xA5	; 165
    1ebc:	d0 40       	sbci	r29, 0x00	; 0
    1ebe:	cb 55       	subi	r28, 0x5B	; 91
    1ec0:	df 4f       	sbci	r29, 0xFF	; 255
    1ec2:	88 81       	ld	r24, Y
    1ec4:	c5 5a       	subi	r28, 0xA5	; 165
    1ec6:	d0 40       	sbci	r29, 0x00	; 0
    1ec8:	88 23       	and	r24, r24
    1eca:	31 f6       	brne	.-116    	; 0x1e58 <Write_O+0x10a>
		u8 colc_O[]={0,0,1,0,0,0,0,0};
    1ecc:	88 e0       	ldi	r24, 0x08	; 8
    1ece:	fe 01       	movw	r30, r28
    1ed0:	fe 96       	adiw	r30, 0x3e	; 62
    1ed2:	df 01       	movw	r26, r30
    1ed4:	98 2f       	mov	r25, r24
    1ed6:	1d 92       	st	X+, r1
    1ed8:	9a 95       	dec	r25
    1eda:	e9 f7       	brne	.-6      	; 0x1ed6 <Write_O+0x188>
    1edc:	81 e0       	ldi	r24, 0x01	; 1
    1ede:	fe 01       	movw	r30, r28
    1ee0:	e0 5c       	subi	r30, 0xC0	; 192
    1ee2:	ff 4f       	sbci	r31, 0xFF	; 255
    1ee4:	80 83       	st	Z, r24
		u8 rowc_O[]={1,0,0,0,0,0,0,1};
    1ee6:	ce 01       	movw	r24, r28
    1ee8:	8a 5b       	subi	r24, 0xBA	; 186
    1eea:	9f 4f       	sbci	r25, 0xFF	; 255
    1eec:	ca 55       	subi	r28, 0x5A	; 90
    1eee:	df 4f       	sbci	r29, 0xFF	; 255
    1ef0:	99 83       	std	Y+1, r25	; 0x01
    1ef2:	88 83       	st	Y, r24
    1ef4:	c6 5a       	subi	r28, 0xA6	; 166
    1ef6:	d0 40       	sbci	r29, 0x00	; 0
    1ef8:	ab ef       	ldi	r26, 0xFB	; 251
    1efa:	b0 e0       	ldi	r27, 0x00	; 0
    1efc:	c8 55       	subi	r28, 0x58	; 88
    1efe:	df 4f       	sbci	r29, 0xFF	; 255
    1f00:	b9 83       	std	Y+1, r27	; 0x01
    1f02:	a8 83       	st	Y, r26
    1f04:	c8 5a       	subi	r28, 0xA8	; 168
    1f06:	d0 40       	sbci	r29, 0x00	; 0
    1f08:	b8 e0       	ldi	r27, 0x08	; 8
    1f0a:	c6 55       	subi	r28, 0x56	; 86
    1f0c:	df 4f       	sbci	r29, 0xFF	; 255
    1f0e:	b8 83       	st	Y, r27
    1f10:	ca 5a       	subi	r28, 0xAA	; 170
    1f12:	d0 40       	sbci	r29, 0x00	; 0
    1f14:	c8 55       	subi	r28, 0x58	; 88
    1f16:	df 4f       	sbci	r29, 0xFF	; 255
    1f18:	e8 81       	ld	r30, Y
    1f1a:	f9 81       	ldd	r31, Y+1	; 0x01
    1f1c:	c8 5a       	subi	r28, 0xA8	; 168
    1f1e:	d0 40       	sbci	r29, 0x00	; 0
    1f20:	00 80       	ld	r0, Z
    1f22:	c8 55       	subi	r28, 0x58	; 88
    1f24:	df 4f       	sbci	r29, 0xFF	; 255
    1f26:	88 81       	ld	r24, Y
    1f28:	99 81       	ldd	r25, Y+1	; 0x01
    1f2a:	c8 5a       	subi	r28, 0xA8	; 168
    1f2c:	d0 40       	sbci	r29, 0x00	; 0
    1f2e:	01 96       	adiw	r24, 0x01	; 1
    1f30:	c8 55       	subi	r28, 0x58	; 88
    1f32:	df 4f       	sbci	r29, 0xFF	; 255
    1f34:	99 83       	std	Y+1, r25	; 0x01
    1f36:	88 83       	st	Y, r24
    1f38:	c8 5a       	subi	r28, 0xA8	; 168
    1f3a:	d0 40       	sbci	r29, 0x00	; 0
    1f3c:	ca 55       	subi	r28, 0x5A	; 90
    1f3e:	df 4f       	sbci	r29, 0xFF	; 255
    1f40:	a8 81       	ld	r26, Y
    1f42:	b9 81       	ldd	r27, Y+1	; 0x01
    1f44:	c6 5a       	subi	r28, 0xA6	; 166
    1f46:	d0 40       	sbci	r29, 0x00	; 0
    1f48:	0c 92       	st	X, r0
    1f4a:	ca 55       	subi	r28, 0x5A	; 90
    1f4c:	df 4f       	sbci	r29, 0xFF	; 255
    1f4e:	e8 81       	ld	r30, Y
    1f50:	f9 81       	ldd	r31, Y+1	; 0x01
    1f52:	c6 5a       	subi	r28, 0xA6	; 166
    1f54:	d0 40       	sbci	r29, 0x00	; 0
    1f56:	31 96       	adiw	r30, 0x01	; 1
    1f58:	ca 55       	subi	r28, 0x5A	; 90
    1f5a:	df 4f       	sbci	r29, 0xFF	; 255
    1f5c:	f9 83       	std	Y+1, r31	; 0x01
    1f5e:	e8 83       	st	Y, r30
    1f60:	c6 5a       	subi	r28, 0xA6	; 166
    1f62:	d0 40       	sbci	r29, 0x00	; 0
    1f64:	c6 55       	subi	r28, 0x56	; 86
    1f66:	df 4f       	sbci	r29, 0xFF	; 255
    1f68:	f8 81       	ld	r31, Y
    1f6a:	ca 5a       	subi	r28, 0xAA	; 170
    1f6c:	d0 40       	sbci	r29, 0x00	; 0
    1f6e:	f1 50       	subi	r31, 0x01	; 1
    1f70:	c6 55       	subi	r28, 0x56	; 86
    1f72:	df 4f       	sbci	r29, 0xFF	; 255
    1f74:	f8 83       	st	Y, r31
    1f76:	ca 5a       	subi	r28, 0xAA	; 170
    1f78:	d0 40       	sbci	r29, 0x00	; 0
    1f7a:	c6 55       	subi	r28, 0x56	; 86
    1f7c:	df 4f       	sbci	r29, 0xFF	; 255
    1f7e:	88 81       	ld	r24, Y
    1f80:	ca 5a       	subi	r28, 0xAA	; 170
    1f82:	d0 40       	sbci	r29, 0x00	; 0
    1f84:	88 23       	and	r24, r24
    1f86:	31 f6       	brne	.-116    	; 0x1f14 <Write_O+0x1c6>
		u8 cold_O[]={0,0,0,1,0,0,0,0};
    1f88:	ce 01       	movw	r24, r28
    1f8a:	82 5b       	subi	r24, 0xB2	; 178
    1f8c:	9f 4f       	sbci	r25, 0xFF	; 255
    1f8e:	28 e0       	ldi	r18, 0x08	; 8
    1f90:	fc 01       	movw	r30, r24
    1f92:	df 01       	movw	r26, r30
    1f94:	82 2f       	mov	r24, r18
    1f96:	1d 92       	st	X+, r1
    1f98:	8a 95       	dec	r24
    1f9a:	e9 f7       	brne	.-6      	; 0x1f96 <Write_O+0x248>
    1f9c:	fe 01       	movw	r30, r28
    1f9e:	e2 5b       	subi	r30, 0xB2	; 178
    1fa0:	ff 4f       	sbci	r31, 0xFF	; 255
    1fa2:	81 e0       	ldi	r24, 0x01	; 1
    1fa4:	83 83       	std	Z+3, r24	; 0x03
		u8 rowd_O[]={1,0,0,0,0,0,0,1};
    1fa6:	ce 01       	movw	r24, r28
    1fa8:	8a 5a       	subi	r24, 0xAA	; 170
    1faa:	9f 4f       	sbci	r25, 0xFF	; 255
    1fac:	c5 55       	subi	r28, 0x55	; 85
    1fae:	df 4f       	sbci	r29, 0xFF	; 255
    1fb0:	99 83       	std	Y+1, r25	; 0x01
    1fb2:	88 83       	st	Y, r24
    1fb4:	cb 5a       	subi	r28, 0xAB	; 171
    1fb6:	d0 40       	sbci	r29, 0x00	; 0
    1fb8:	a3 ef       	ldi	r26, 0xF3	; 243
    1fba:	b0 e0       	ldi	r27, 0x00	; 0
    1fbc:	c3 55       	subi	r28, 0x53	; 83
    1fbe:	df 4f       	sbci	r29, 0xFF	; 255
    1fc0:	b9 83       	std	Y+1, r27	; 0x01
    1fc2:	a8 83       	st	Y, r26
    1fc4:	cd 5a       	subi	r28, 0xAD	; 173
    1fc6:	d0 40       	sbci	r29, 0x00	; 0
    1fc8:	b8 e0       	ldi	r27, 0x08	; 8
    1fca:	c1 55       	subi	r28, 0x51	; 81
    1fcc:	df 4f       	sbci	r29, 0xFF	; 255
    1fce:	b8 83       	st	Y, r27
    1fd0:	cf 5a       	subi	r28, 0xAF	; 175
    1fd2:	d0 40       	sbci	r29, 0x00	; 0
    1fd4:	c3 55       	subi	r28, 0x53	; 83
    1fd6:	df 4f       	sbci	r29, 0xFF	; 255
    1fd8:	e8 81       	ld	r30, Y
    1fda:	f9 81       	ldd	r31, Y+1	; 0x01
    1fdc:	cd 5a       	subi	r28, 0xAD	; 173
    1fde:	d0 40       	sbci	r29, 0x00	; 0
    1fe0:	00 80       	ld	r0, Z
    1fe2:	c3 55       	subi	r28, 0x53	; 83
    1fe4:	df 4f       	sbci	r29, 0xFF	; 255
    1fe6:	88 81       	ld	r24, Y
    1fe8:	99 81       	ldd	r25, Y+1	; 0x01
    1fea:	cd 5a       	subi	r28, 0xAD	; 173
    1fec:	d0 40       	sbci	r29, 0x00	; 0
    1fee:	01 96       	adiw	r24, 0x01	; 1
    1ff0:	c3 55       	subi	r28, 0x53	; 83
    1ff2:	df 4f       	sbci	r29, 0xFF	; 255
    1ff4:	99 83       	std	Y+1, r25	; 0x01
    1ff6:	88 83       	st	Y, r24
    1ff8:	cd 5a       	subi	r28, 0xAD	; 173
    1ffa:	d0 40       	sbci	r29, 0x00	; 0
    1ffc:	c5 55       	subi	r28, 0x55	; 85
    1ffe:	df 4f       	sbci	r29, 0xFF	; 255
    2000:	a8 81       	ld	r26, Y
    2002:	b9 81       	ldd	r27, Y+1	; 0x01
    2004:	cb 5a       	subi	r28, 0xAB	; 171
    2006:	d0 40       	sbci	r29, 0x00	; 0
    2008:	0c 92       	st	X, r0
    200a:	c5 55       	subi	r28, 0x55	; 85
    200c:	df 4f       	sbci	r29, 0xFF	; 255
    200e:	e8 81       	ld	r30, Y
    2010:	f9 81       	ldd	r31, Y+1	; 0x01
    2012:	cb 5a       	subi	r28, 0xAB	; 171
    2014:	d0 40       	sbci	r29, 0x00	; 0
    2016:	31 96       	adiw	r30, 0x01	; 1
    2018:	c5 55       	subi	r28, 0x55	; 85
    201a:	df 4f       	sbci	r29, 0xFF	; 255
    201c:	f9 83       	std	Y+1, r31	; 0x01
    201e:	e8 83       	st	Y, r30
    2020:	cb 5a       	subi	r28, 0xAB	; 171
    2022:	d0 40       	sbci	r29, 0x00	; 0
    2024:	c1 55       	subi	r28, 0x51	; 81
    2026:	df 4f       	sbci	r29, 0xFF	; 255
    2028:	f8 81       	ld	r31, Y
    202a:	cf 5a       	subi	r28, 0xAF	; 175
    202c:	d0 40       	sbci	r29, 0x00	; 0
    202e:	f1 50       	subi	r31, 0x01	; 1
    2030:	c1 55       	subi	r28, 0x51	; 81
    2032:	df 4f       	sbci	r29, 0xFF	; 255
    2034:	f8 83       	st	Y, r31
    2036:	cf 5a       	subi	r28, 0xAF	; 175
    2038:	d0 40       	sbci	r29, 0x00	; 0
    203a:	c1 55       	subi	r28, 0x51	; 81
    203c:	df 4f       	sbci	r29, 0xFF	; 255
    203e:	88 81       	ld	r24, Y
    2040:	cf 5a       	subi	r28, 0xAF	; 175
    2042:	d0 40       	sbci	r29, 0x00	; 0
    2044:	88 23       	and	r24, r24
    2046:	31 f6       	brne	.-116    	; 0x1fd4 <Write_O+0x286>
		u8 cole_O[]={0,0,0,0,1,0,0,0};
    2048:	ce 01       	movw	r24, r28
    204a:	82 5a       	subi	r24, 0xA2	; 162
    204c:	9f 4f       	sbci	r25, 0xFF	; 255
    204e:	28 e0       	ldi	r18, 0x08	; 8
    2050:	fc 01       	movw	r30, r24
    2052:	df 01       	movw	r26, r30
    2054:	82 2f       	mov	r24, r18
    2056:	1d 92       	st	X+, r1
    2058:	8a 95       	dec	r24
    205a:	e9 f7       	brne	.-6      	; 0x2056 <Write_O+0x308>
    205c:	fe 01       	movw	r30, r28
    205e:	e2 5a       	subi	r30, 0xA2	; 162
    2060:	ff 4f       	sbci	r31, 0xFF	; 255
    2062:	81 e0       	ldi	r24, 0x01	; 1
    2064:	84 83       	std	Z+4, r24	; 0x04
		u8 rowe_O[]={1,0,0,0,0,0,0,1};
    2066:	ce 01       	movw	r24, r28
    2068:	8a 59       	subi	r24, 0x9A	; 154
    206a:	9f 4f       	sbci	r25, 0xFF	; 255
    206c:	c0 55       	subi	r28, 0x50	; 80
    206e:	df 4f       	sbci	r29, 0xFF	; 255
    2070:	99 83       	std	Y+1, r25	; 0x01
    2072:	88 83       	st	Y, r24
    2074:	c0 5b       	subi	r28, 0xB0	; 176
    2076:	d0 40       	sbci	r29, 0x00	; 0
    2078:	ab ee       	ldi	r26, 0xEB	; 235
    207a:	b0 e0       	ldi	r27, 0x00	; 0
    207c:	ce 54       	subi	r28, 0x4E	; 78
    207e:	df 4f       	sbci	r29, 0xFF	; 255
    2080:	b9 83       	std	Y+1, r27	; 0x01
    2082:	a8 83       	st	Y, r26
    2084:	c2 5b       	subi	r28, 0xB2	; 178
    2086:	d0 40       	sbci	r29, 0x00	; 0
    2088:	b8 e0       	ldi	r27, 0x08	; 8
    208a:	cc 54       	subi	r28, 0x4C	; 76
    208c:	df 4f       	sbci	r29, 0xFF	; 255
    208e:	b8 83       	st	Y, r27
    2090:	c4 5b       	subi	r28, 0xB4	; 180
    2092:	d0 40       	sbci	r29, 0x00	; 0
    2094:	ce 54       	subi	r28, 0x4E	; 78
    2096:	df 4f       	sbci	r29, 0xFF	; 255
    2098:	e8 81       	ld	r30, Y
    209a:	f9 81       	ldd	r31, Y+1	; 0x01
    209c:	c2 5b       	subi	r28, 0xB2	; 178
    209e:	d0 40       	sbci	r29, 0x00	; 0
    20a0:	00 80       	ld	r0, Z
    20a2:	ce 54       	subi	r28, 0x4E	; 78
    20a4:	df 4f       	sbci	r29, 0xFF	; 255
    20a6:	88 81       	ld	r24, Y
    20a8:	99 81       	ldd	r25, Y+1	; 0x01
    20aa:	c2 5b       	subi	r28, 0xB2	; 178
    20ac:	d0 40       	sbci	r29, 0x00	; 0
    20ae:	01 96       	adiw	r24, 0x01	; 1
    20b0:	ce 54       	subi	r28, 0x4E	; 78
    20b2:	df 4f       	sbci	r29, 0xFF	; 255
    20b4:	99 83       	std	Y+1, r25	; 0x01
    20b6:	88 83       	st	Y, r24
    20b8:	c2 5b       	subi	r28, 0xB2	; 178
    20ba:	d0 40       	sbci	r29, 0x00	; 0
    20bc:	c0 55       	subi	r28, 0x50	; 80
    20be:	df 4f       	sbci	r29, 0xFF	; 255
    20c0:	a8 81       	ld	r26, Y
    20c2:	b9 81       	ldd	r27, Y+1	; 0x01
    20c4:	c0 5b       	subi	r28, 0xB0	; 176
    20c6:	d0 40       	sbci	r29, 0x00	; 0
    20c8:	0c 92       	st	X, r0
    20ca:	c0 55       	subi	r28, 0x50	; 80
    20cc:	df 4f       	sbci	r29, 0xFF	; 255
    20ce:	e8 81       	ld	r30, Y
    20d0:	f9 81       	ldd	r31, Y+1	; 0x01
    20d2:	c0 5b       	subi	r28, 0xB0	; 176
    20d4:	d0 40       	sbci	r29, 0x00	; 0
    20d6:	31 96       	adiw	r30, 0x01	; 1
    20d8:	c0 55       	subi	r28, 0x50	; 80
    20da:	df 4f       	sbci	r29, 0xFF	; 255
    20dc:	f9 83       	std	Y+1, r31	; 0x01
    20de:	e8 83       	st	Y, r30
    20e0:	c0 5b       	subi	r28, 0xB0	; 176
    20e2:	d0 40       	sbci	r29, 0x00	; 0
    20e4:	cc 54       	subi	r28, 0x4C	; 76
    20e6:	df 4f       	sbci	r29, 0xFF	; 255
    20e8:	f8 81       	ld	r31, Y
    20ea:	c4 5b       	subi	r28, 0xB4	; 180
    20ec:	d0 40       	sbci	r29, 0x00	; 0
    20ee:	f1 50       	subi	r31, 0x01	; 1
    20f0:	cc 54       	subi	r28, 0x4C	; 76
    20f2:	df 4f       	sbci	r29, 0xFF	; 255
    20f4:	f8 83       	st	Y, r31
    20f6:	c4 5b       	subi	r28, 0xB4	; 180
    20f8:	d0 40       	sbci	r29, 0x00	; 0
    20fa:	cc 54       	subi	r28, 0x4C	; 76
    20fc:	df 4f       	sbci	r29, 0xFF	; 255
    20fe:	88 81       	ld	r24, Y
    2100:	c4 5b       	subi	r28, 0xB4	; 180
    2102:	d0 40       	sbci	r29, 0x00	; 0
    2104:	88 23       	and	r24, r24
    2106:	31 f6       	brne	.-116    	; 0x2094 <Write_O+0x346>
		u8 colf_O[]={0,0,0,0,0,1,0,0};
    2108:	ce 01       	movw	r24, r28
    210a:	82 59       	subi	r24, 0x92	; 146
    210c:	9f 4f       	sbci	r25, 0xFF	; 255
    210e:	28 e0       	ldi	r18, 0x08	; 8
    2110:	fc 01       	movw	r30, r24
    2112:	df 01       	movw	r26, r30
    2114:	82 2f       	mov	r24, r18
    2116:	1d 92       	st	X+, r1
    2118:	8a 95       	dec	r24
    211a:	e9 f7       	brne	.-6      	; 0x2116 <Write_O+0x3c8>
    211c:	fe 01       	movw	r30, r28
    211e:	e2 59       	subi	r30, 0x92	; 146
    2120:	ff 4f       	sbci	r31, 0xFF	; 255
    2122:	81 e0       	ldi	r24, 0x01	; 1
    2124:	85 83       	std	Z+5, r24	; 0x05
		u8 rowf_O[]={0,1,0,0,0,0,1,0};
    2126:	ce 01       	movw	r24, r28
    2128:	8a 58       	subi	r24, 0x8A	; 138
    212a:	9f 4f       	sbci	r25, 0xFF	; 255
    212c:	cb 54       	subi	r28, 0x4B	; 75
    212e:	df 4f       	sbci	r29, 0xFF	; 255
    2130:	99 83       	std	Y+1, r25	; 0x01
    2132:	88 83       	st	Y, r24
    2134:	c5 5b       	subi	r28, 0xB5	; 181
    2136:	d0 40       	sbci	r29, 0x00	; 0
    2138:	a3 ee       	ldi	r26, 0xE3	; 227
    213a:	b0 e0       	ldi	r27, 0x00	; 0
    213c:	c9 54       	subi	r28, 0x49	; 73
    213e:	df 4f       	sbci	r29, 0xFF	; 255
    2140:	b9 83       	std	Y+1, r27	; 0x01
    2142:	a8 83       	st	Y, r26
    2144:	c7 5b       	subi	r28, 0xB7	; 183
    2146:	d0 40       	sbci	r29, 0x00	; 0
    2148:	b8 e0       	ldi	r27, 0x08	; 8
    214a:	c7 54       	subi	r28, 0x47	; 71
    214c:	df 4f       	sbci	r29, 0xFF	; 255
    214e:	b8 83       	st	Y, r27
    2150:	c9 5b       	subi	r28, 0xB9	; 185
    2152:	d0 40       	sbci	r29, 0x00	; 0
    2154:	c9 54       	subi	r28, 0x49	; 73
    2156:	df 4f       	sbci	r29, 0xFF	; 255
    2158:	e8 81       	ld	r30, Y
    215a:	f9 81       	ldd	r31, Y+1	; 0x01
    215c:	c7 5b       	subi	r28, 0xB7	; 183
    215e:	d0 40       	sbci	r29, 0x00	; 0
    2160:	00 80       	ld	r0, Z
    2162:	c9 54       	subi	r28, 0x49	; 73
    2164:	df 4f       	sbci	r29, 0xFF	; 255
    2166:	88 81       	ld	r24, Y
    2168:	99 81       	ldd	r25, Y+1	; 0x01
    216a:	c7 5b       	subi	r28, 0xB7	; 183
    216c:	d0 40       	sbci	r29, 0x00	; 0
    216e:	01 96       	adiw	r24, 0x01	; 1
    2170:	c9 54       	subi	r28, 0x49	; 73
    2172:	df 4f       	sbci	r29, 0xFF	; 255
    2174:	99 83       	std	Y+1, r25	; 0x01
    2176:	88 83       	st	Y, r24
    2178:	c7 5b       	subi	r28, 0xB7	; 183
    217a:	d0 40       	sbci	r29, 0x00	; 0
    217c:	cb 54       	subi	r28, 0x4B	; 75
    217e:	df 4f       	sbci	r29, 0xFF	; 255
    2180:	a8 81       	ld	r26, Y
    2182:	b9 81       	ldd	r27, Y+1	; 0x01
    2184:	c5 5b       	subi	r28, 0xB5	; 181
    2186:	d0 40       	sbci	r29, 0x00	; 0
    2188:	0c 92       	st	X, r0
    218a:	cb 54       	subi	r28, 0x4B	; 75
    218c:	df 4f       	sbci	r29, 0xFF	; 255
    218e:	e8 81       	ld	r30, Y
    2190:	f9 81       	ldd	r31, Y+1	; 0x01
    2192:	c5 5b       	subi	r28, 0xB5	; 181
    2194:	d0 40       	sbci	r29, 0x00	; 0
    2196:	31 96       	adiw	r30, 0x01	; 1
    2198:	cb 54       	subi	r28, 0x4B	; 75
    219a:	df 4f       	sbci	r29, 0xFF	; 255
    219c:	f9 83       	std	Y+1, r31	; 0x01
    219e:	e8 83       	st	Y, r30
    21a0:	c5 5b       	subi	r28, 0xB5	; 181
    21a2:	d0 40       	sbci	r29, 0x00	; 0
    21a4:	c7 54       	subi	r28, 0x47	; 71
    21a6:	df 4f       	sbci	r29, 0xFF	; 255
    21a8:	f8 81       	ld	r31, Y
    21aa:	c9 5b       	subi	r28, 0xB9	; 185
    21ac:	d0 40       	sbci	r29, 0x00	; 0
    21ae:	f1 50       	subi	r31, 0x01	; 1
    21b0:	c7 54       	subi	r28, 0x47	; 71
    21b2:	df 4f       	sbci	r29, 0xFF	; 255
    21b4:	f8 83       	st	Y, r31
    21b6:	c9 5b       	subi	r28, 0xB9	; 185
    21b8:	d0 40       	sbci	r29, 0x00	; 0
    21ba:	c7 54       	subi	r28, 0x47	; 71
    21bc:	df 4f       	sbci	r29, 0xFF	; 255
    21be:	88 81       	ld	r24, Y
    21c0:	c9 5b       	subi	r28, 0xB9	; 185
    21c2:	d0 40       	sbci	r29, 0x00	; 0
    21c4:	88 23       	and	r24, r24
    21c6:	31 f6       	brne	.-116    	; 0x2154 <Write_O+0x406>
		u8 colg_O[]={0,0,0,0,0,0,1,0};
    21c8:	ce 01       	movw	r24, r28
    21ca:	82 58       	subi	r24, 0x82	; 130
    21cc:	9f 4f       	sbci	r25, 0xFF	; 255
    21ce:	28 e0       	ldi	r18, 0x08	; 8
    21d0:	fc 01       	movw	r30, r24
    21d2:	df 01       	movw	r26, r30
    21d4:	82 2f       	mov	r24, r18
    21d6:	1d 92       	st	X+, r1
    21d8:	8a 95       	dec	r24
    21da:	e9 f7       	brne	.-6      	; 0x21d6 <Write_O+0x488>
    21dc:	fe 01       	movw	r30, r28
    21de:	e2 58       	subi	r30, 0x82	; 130
    21e0:	ff 4f       	sbci	r31, 0xFF	; 255
    21e2:	81 e0       	ldi	r24, 0x01	; 1
    21e4:	86 83       	std	Z+6, r24	; 0x06
		u8 rowg_O[]={0,0,1,1,1,1,0,0};
    21e6:	ce 01       	movw	r24, r28
    21e8:	8a 57       	subi	r24, 0x7A	; 122
    21ea:	9f 4f       	sbci	r25, 0xFF	; 255
    21ec:	c6 54       	subi	r28, 0x46	; 70
    21ee:	df 4f       	sbci	r29, 0xFF	; 255
    21f0:	99 83       	std	Y+1, r25	; 0x01
    21f2:	88 83       	st	Y, r24
    21f4:	ca 5b       	subi	r28, 0xBA	; 186
    21f6:	d0 40       	sbci	r29, 0x00	; 0
    21f8:	ab ed       	ldi	r26, 0xDB	; 219
    21fa:	b0 e0       	ldi	r27, 0x00	; 0
    21fc:	c4 54       	subi	r28, 0x44	; 68
    21fe:	df 4f       	sbci	r29, 0xFF	; 255
    2200:	b9 83       	std	Y+1, r27	; 0x01
    2202:	a8 83       	st	Y, r26
    2204:	cc 5b       	subi	r28, 0xBC	; 188
    2206:	d0 40       	sbci	r29, 0x00	; 0
    2208:	b8 e0       	ldi	r27, 0x08	; 8
    220a:	c2 54       	subi	r28, 0x42	; 66
    220c:	df 4f       	sbci	r29, 0xFF	; 255
    220e:	b8 83       	st	Y, r27
    2210:	ce 5b       	subi	r28, 0xBE	; 190
    2212:	d0 40       	sbci	r29, 0x00	; 0
    2214:	c4 54       	subi	r28, 0x44	; 68
    2216:	df 4f       	sbci	r29, 0xFF	; 255
    2218:	e8 81       	ld	r30, Y
    221a:	f9 81       	ldd	r31, Y+1	; 0x01
    221c:	cc 5b       	subi	r28, 0xBC	; 188
    221e:	d0 40       	sbci	r29, 0x00	; 0
    2220:	00 80       	ld	r0, Z
    2222:	c4 54       	subi	r28, 0x44	; 68
    2224:	df 4f       	sbci	r29, 0xFF	; 255
    2226:	88 81       	ld	r24, Y
    2228:	99 81       	ldd	r25, Y+1	; 0x01
    222a:	cc 5b       	subi	r28, 0xBC	; 188
    222c:	d0 40       	sbci	r29, 0x00	; 0
    222e:	01 96       	adiw	r24, 0x01	; 1
    2230:	c4 54       	subi	r28, 0x44	; 68
    2232:	df 4f       	sbci	r29, 0xFF	; 255
    2234:	99 83       	std	Y+1, r25	; 0x01
    2236:	88 83       	st	Y, r24
    2238:	cc 5b       	subi	r28, 0xBC	; 188
    223a:	d0 40       	sbci	r29, 0x00	; 0
    223c:	c6 54       	subi	r28, 0x46	; 70
    223e:	df 4f       	sbci	r29, 0xFF	; 255
    2240:	a8 81       	ld	r26, Y
    2242:	b9 81       	ldd	r27, Y+1	; 0x01
    2244:	ca 5b       	subi	r28, 0xBA	; 186
    2246:	d0 40       	sbci	r29, 0x00	; 0
    2248:	0c 92       	st	X, r0
    224a:	c6 54       	subi	r28, 0x46	; 70
    224c:	df 4f       	sbci	r29, 0xFF	; 255
    224e:	e8 81       	ld	r30, Y
    2250:	f9 81       	ldd	r31, Y+1	; 0x01
    2252:	ca 5b       	subi	r28, 0xBA	; 186
    2254:	d0 40       	sbci	r29, 0x00	; 0
    2256:	31 96       	adiw	r30, 0x01	; 1
    2258:	c6 54       	subi	r28, 0x46	; 70
    225a:	df 4f       	sbci	r29, 0xFF	; 255
    225c:	f9 83       	std	Y+1, r31	; 0x01
    225e:	e8 83       	st	Y, r30
    2260:	ca 5b       	subi	r28, 0xBA	; 186
    2262:	d0 40       	sbci	r29, 0x00	; 0
    2264:	c2 54       	subi	r28, 0x42	; 66
    2266:	df 4f       	sbci	r29, 0xFF	; 255
    2268:	f8 81       	ld	r31, Y
    226a:	ce 5b       	subi	r28, 0xBE	; 190
    226c:	d0 40       	sbci	r29, 0x00	; 0
    226e:	f1 50       	subi	r31, 0x01	; 1
    2270:	c2 54       	subi	r28, 0x42	; 66
    2272:	df 4f       	sbci	r29, 0xFF	; 255
    2274:	f8 83       	st	Y, r31
    2276:	ce 5b       	subi	r28, 0xBE	; 190
    2278:	d0 40       	sbci	r29, 0x00	; 0
    227a:	c2 54       	subi	r28, 0x42	; 66
    227c:	df 4f       	sbci	r29, 0xFF	; 255
    227e:	88 81       	ld	r24, Y
    2280:	ce 5b       	subi	r28, 0xBE	; 190
    2282:	d0 40       	sbci	r29, 0x00	; 0
    2284:	88 23       	and	r24, r24
    2286:	31 f6       	brne	.-116    	; 0x2214 <Write_O+0x4c6>

		u8 x = 30 ;
    2288:	8e e1       	ldi	r24, 0x1E	; 30
    228a:	8d 8f       	std	Y+29, r24	; 0x1d
    228c:	27 c2       	rjmp	.+1102   	; 0x26dc <Write_O+0x98e>
		while(x)
		{

		cols(cola_O);
    228e:	ce 01       	movw	r24, r28
    2290:	4e 96       	adiw	r24, 0x1e	; 30
    2292:	0e 94 77 15 	call	0x2aee	; 0x2aee <cols>
		rows(rowa_O);
    2296:	ce 01       	movw	r24, r28
    2298:	86 96       	adiw	r24, 0x26	; 38
    229a:	0e 94 18 15 	call	0x2a30	; 0x2a30 <rows>
		DIO_u8WritePinVal(latch,1);
    229e:	83 e1       	ldi	r24, 0x13	; 19
    22a0:	61 e0       	ldi	r22, 0x01	; 1
    22a2:	0e 94 cd 00 	call	0x19a	; 0x19a <DIO_u8WritePinVal>
		DELAY(0.001);
    22a6:	1a 8e       	std	Y+26, r1	; 0x1a
    22a8:	19 8e       	std	Y+25, r1	; 0x19
    22aa:	1f c0       	rjmp	.+62     	; 0x22ea <Write_O+0x59c>
    22ac:	88 e2       	ldi	r24, 0x28	; 40
    22ae:	9a e0       	ldi	r25, 0x0A	; 10
    22b0:	9c 8f       	std	Y+28, r25	; 0x1c
    22b2:	8b 8f       	std	Y+27, r24	; 0x1b
    22b4:	c5 56       	subi	r28, 0x65	; 101
    22b6:	df 4f       	sbci	r29, 0xFF	; 255
    22b8:	18 82       	st	Y, r1
    22ba:	cb 59       	subi	r28, 0x9B	; 155
    22bc:	d0 40       	sbci	r29, 0x00	; 0
    22be:	8b 8d       	ldd	r24, Y+27	; 0x1b
    22c0:	9c 8d       	ldd	r25, Y+28	; 0x1c
    22c2:	00 97       	sbiw	r24, 0x00	; 0
    22c4:	31 f0       	breq	.+12     	; 0x22d2 <Write_O+0x584>
    22c6:	91 e0       	ldi	r25, 0x01	; 1
    22c8:	c5 56       	subi	r28, 0x65	; 101
    22ca:	df 4f       	sbci	r29, 0xFF	; 255
    22cc:	98 83       	st	Y, r25
    22ce:	cb 59       	subi	r28, 0x9B	; 155
    22d0:	d0 40       	sbci	r29, 0x00	; 0
    22d2:	8b 8d       	ldd	r24, Y+27	; 0x1b
    22d4:	9c 8d       	ldd	r25, Y+28	; 0x1c
    22d6:	01 97       	sbiw	r24, 0x01	; 1
    22d8:	9c 8f       	std	Y+28, r25	; 0x1c
    22da:	8b 8f       	std	Y+27, r24	; 0x1b
    22dc:	c5 56       	subi	r28, 0x65	; 101
    22de:	df 4f       	sbci	r29, 0xFF	; 255
    22e0:	a8 81       	ld	r26, Y
    22e2:	cb 59       	subi	r28, 0x9B	; 155
    22e4:	d0 40       	sbci	r29, 0x00	; 0
    22e6:	aa 23       	and	r26, r26
    22e8:	29 f7       	brne	.-54     	; 0x22b4 <Write_O+0x566>
    22ea:	c6 56       	subi	r28, 0x66	; 102
    22ec:	df 4f       	sbci	r29, 0xFF	; 255
    22ee:	18 82       	st	Y, r1
    22f0:	ca 59       	subi	r28, 0x9A	; 154
    22f2:	d0 40       	sbci	r29, 0x00	; 0
    22f4:	89 8d       	ldd	r24, Y+25	; 0x19
    22f6:	9a 8d       	ldd	r25, Y+26	; 0x1a
    22f8:	00 97       	sbiw	r24, 0x00	; 0
    22fa:	31 f0       	breq	.+12     	; 0x2308 <Write_O+0x5ba>
    22fc:	b1 e0       	ldi	r27, 0x01	; 1
    22fe:	c6 56       	subi	r28, 0x66	; 102
    2300:	df 4f       	sbci	r29, 0xFF	; 255
    2302:	b8 83       	st	Y, r27
    2304:	ca 59       	subi	r28, 0x9A	; 154
    2306:	d0 40       	sbci	r29, 0x00	; 0
    2308:	89 8d       	ldd	r24, Y+25	; 0x19
    230a:	9a 8d       	ldd	r25, Y+26	; 0x1a
    230c:	01 97       	sbiw	r24, 0x01	; 1
    230e:	9a 8f       	std	Y+26, r25	; 0x1a
    2310:	89 8f       	std	Y+25, r24	; 0x19
    2312:	c6 56       	subi	r28, 0x66	; 102
    2314:	df 4f       	sbci	r29, 0xFF	; 255
    2316:	e8 81       	ld	r30, Y
    2318:	ca 59       	subi	r28, 0x9A	; 154
    231a:	d0 40       	sbci	r29, 0x00	; 0
    231c:	ee 23       	and	r30, r30
    231e:	31 f6       	brne	.-116    	; 0x22ac <Write_O+0x55e>
		DIO_u8WritePinVal(latch,0);
    2320:	83 e1       	ldi	r24, 0x13	; 19
    2322:	60 e0       	ldi	r22, 0x00	; 0
    2324:	0e 94 cd 00 	call	0x19a	; 0x19a <DIO_u8WritePinVal>

		cols(colb_O);
    2328:	ce 01       	movw	r24, r28
    232a:	8e 96       	adiw	r24, 0x2e	; 46
    232c:	0e 94 77 15 	call	0x2aee	; 0x2aee <cols>
		rows(rowb_O);
    2330:	ce 01       	movw	r24, r28
    2332:	c6 96       	adiw	r24, 0x36	; 54
    2334:	0e 94 18 15 	call	0x2a30	; 0x2a30 <rows>
		DIO_u8WritePinVal(latch,1);
    2338:	83 e1       	ldi	r24, 0x13	; 19
    233a:	61 e0       	ldi	r22, 0x01	; 1
    233c:	0e 94 cd 00 	call	0x19a	; 0x19a <DIO_u8WritePinVal>
		DELAY(0.001);
    2340:	1e 8a       	std	Y+22, r1	; 0x16
    2342:	1d 8a       	std	Y+21, r1	; 0x15
    2344:	1f c0       	rjmp	.+62     	; 0x2384 <Write_O+0x636>
    2346:	88 e2       	ldi	r24, 0x28	; 40
    2348:	9a e0       	ldi	r25, 0x0A	; 10
    234a:	98 8f       	std	Y+24, r25	; 0x18
    234c:	8f 8b       	std	Y+23, r24	; 0x17
    234e:	c7 56       	subi	r28, 0x67	; 103
    2350:	df 4f       	sbci	r29, 0xFF	; 255
    2352:	18 82       	st	Y, r1
    2354:	c9 59       	subi	r28, 0x99	; 153
    2356:	d0 40       	sbci	r29, 0x00	; 0
    2358:	8f 89       	ldd	r24, Y+23	; 0x17
    235a:	98 8d       	ldd	r25, Y+24	; 0x18
    235c:	00 97       	sbiw	r24, 0x00	; 0
    235e:	31 f0       	breq	.+12     	; 0x236c <Write_O+0x61e>
    2360:	f1 e0       	ldi	r31, 0x01	; 1
    2362:	c7 56       	subi	r28, 0x67	; 103
    2364:	df 4f       	sbci	r29, 0xFF	; 255
    2366:	f8 83       	st	Y, r31
    2368:	c9 59       	subi	r28, 0x99	; 153
    236a:	d0 40       	sbci	r29, 0x00	; 0
    236c:	8f 89       	ldd	r24, Y+23	; 0x17
    236e:	98 8d       	ldd	r25, Y+24	; 0x18
    2370:	01 97       	sbiw	r24, 0x01	; 1
    2372:	98 8f       	std	Y+24, r25	; 0x18
    2374:	8f 8b       	std	Y+23, r24	; 0x17
    2376:	c7 56       	subi	r28, 0x67	; 103
    2378:	df 4f       	sbci	r29, 0xFF	; 255
    237a:	88 81       	ld	r24, Y
    237c:	c9 59       	subi	r28, 0x99	; 153
    237e:	d0 40       	sbci	r29, 0x00	; 0
    2380:	88 23       	and	r24, r24
    2382:	29 f7       	brne	.-54     	; 0x234e <Write_O+0x600>
    2384:	c8 56       	subi	r28, 0x68	; 104
    2386:	df 4f       	sbci	r29, 0xFF	; 255
    2388:	18 82       	st	Y, r1
    238a:	c8 59       	subi	r28, 0x98	; 152
    238c:	d0 40       	sbci	r29, 0x00	; 0
    238e:	8d 89       	ldd	r24, Y+21	; 0x15
    2390:	9e 89       	ldd	r25, Y+22	; 0x16
    2392:	00 97       	sbiw	r24, 0x00	; 0
    2394:	31 f0       	breq	.+12     	; 0x23a2 <Write_O+0x654>
    2396:	91 e0       	ldi	r25, 0x01	; 1
    2398:	c8 56       	subi	r28, 0x68	; 104
    239a:	df 4f       	sbci	r29, 0xFF	; 255
    239c:	98 83       	st	Y, r25
    239e:	c8 59       	subi	r28, 0x98	; 152
    23a0:	d0 40       	sbci	r29, 0x00	; 0
    23a2:	8d 89       	ldd	r24, Y+21	; 0x15
    23a4:	9e 89       	ldd	r25, Y+22	; 0x16
    23a6:	01 97       	sbiw	r24, 0x01	; 1
    23a8:	9e 8b       	std	Y+22, r25	; 0x16
    23aa:	8d 8b       	std	Y+21, r24	; 0x15
    23ac:	c8 56       	subi	r28, 0x68	; 104
    23ae:	df 4f       	sbci	r29, 0xFF	; 255
    23b0:	a8 81       	ld	r26, Y
    23b2:	c8 59       	subi	r28, 0x98	; 152
    23b4:	d0 40       	sbci	r29, 0x00	; 0
    23b6:	aa 23       	and	r26, r26
    23b8:	31 f6       	brne	.-116    	; 0x2346 <Write_O+0x5f8>
		DIO_u8WritePinVal(latch,0);
    23ba:	83 e1       	ldi	r24, 0x13	; 19
    23bc:	60 e0       	ldi	r22, 0x00	; 0
    23be:	0e 94 cd 00 	call	0x19a	; 0x19a <DIO_u8WritePinVal>

		cols(colc_O);
    23c2:	ce 01       	movw	r24, r28
    23c4:	ce 96       	adiw	r24, 0x3e	; 62
    23c6:	0e 94 77 15 	call	0x2aee	; 0x2aee <cols>
		rows(rowc_O);
    23ca:	ce 01       	movw	r24, r28
    23cc:	8a 5b       	subi	r24, 0xBA	; 186
    23ce:	9f 4f       	sbci	r25, 0xFF	; 255
    23d0:	0e 94 18 15 	call	0x2a30	; 0x2a30 <rows>
		DIO_u8WritePinVal(latch,1);
    23d4:	83 e1       	ldi	r24, 0x13	; 19
    23d6:	61 e0       	ldi	r22, 0x01	; 1
    23d8:	0e 94 cd 00 	call	0x19a	; 0x19a <DIO_u8WritePinVal>
		DELAY(0.001);
    23dc:	1a 8a       	std	Y+18, r1	; 0x12
    23de:	19 8a       	std	Y+17, r1	; 0x11
    23e0:	1f c0       	rjmp	.+62     	; 0x2420 <Write_O+0x6d2>
    23e2:	88 e2       	ldi	r24, 0x28	; 40
    23e4:	9a e0       	ldi	r25, 0x0A	; 10
    23e6:	9c 8b       	std	Y+20, r25	; 0x14
    23e8:	8b 8b       	std	Y+19, r24	; 0x13
    23ea:	c9 56       	subi	r28, 0x69	; 105
    23ec:	df 4f       	sbci	r29, 0xFF	; 255
    23ee:	18 82       	st	Y, r1
    23f0:	c7 59       	subi	r28, 0x97	; 151
    23f2:	d0 40       	sbci	r29, 0x00	; 0
    23f4:	8b 89       	ldd	r24, Y+19	; 0x13
    23f6:	9c 89       	ldd	r25, Y+20	; 0x14
    23f8:	00 97       	sbiw	r24, 0x00	; 0
    23fa:	31 f0       	breq	.+12     	; 0x2408 <Write_O+0x6ba>
    23fc:	b1 e0       	ldi	r27, 0x01	; 1
    23fe:	c9 56       	subi	r28, 0x69	; 105
    2400:	df 4f       	sbci	r29, 0xFF	; 255
    2402:	b8 83       	st	Y, r27
    2404:	c7 59       	subi	r28, 0x97	; 151
    2406:	d0 40       	sbci	r29, 0x00	; 0
    2408:	8b 89       	ldd	r24, Y+19	; 0x13
    240a:	9c 89       	ldd	r25, Y+20	; 0x14
    240c:	01 97       	sbiw	r24, 0x01	; 1
    240e:	9c 8b       	std	Y+20, r25	; 0x14
    2410:	8b 8b       	std	Y+19, r24	; 0x13
    2412:	c9 56       	subi	r28, 0x69	; 105
    2414:	df 4f       	sbci	r29, 0xFF	; 255
    2416:	e8 81       	ld	r30, Y
    2418:	c7 59       	subi	r28, 0x97	; 151
    241a:	d0 40       	sbci	r29, 0x00	; 0
    241c:	ee 23       	and	r30, r30
    241e:	29 f7       	brne	.-54     	; 0x23ea <Write_O+0x69c>
    2420:	ca 56       	subi	r28, 0x6A	; 106
    2422:	df 4f       	sbci	r29, 0xFF	; 255
    2424:	18 82       	st	Y, r1
    2426:	c6 59       	subi	r28, 0x96	; 150
    2428:	d0 40       	sbci	r29, 0x00	; 0
    242a:	89 89       	ldd	r24, Y+17	; 0x11
    242c:	9a 89       	ldd	r25, Y+18	; 0x12
    242e:	00 97       	sbiw	r24, 0x00	; 0
    2430:	31 f0       	breq	.+12     	; 0x243e <Write_O+0x6f0>
    2432:	f1 e0       	ldi	r31, 0x01	; 1
    2434:	ca 56       	subi	r28, 0x6A	; 106
    2436:	df 4f       	sbci	r29, 0xFF	; 255
    2438:	f8 83       	st	Y, r31
    243a:	c6 59       	subi	r28, 0x96	; 150
    243c:	d0 40       	sbci	r29, 0x00	; 0
    243e:	89 89       	ldd	r24, Y+17	; 0x11
    2440:	9a 89       	ldd	r25, Y+18	; 0x12
    2442:	01 97       	sbiw	r24, 0x01	; 1
    2444:	9a 8b       	std	Y+18, r25	; 0x12
    2446:	89 8b       	std	Y+17, r24	; 0x11
    2448:	ca 56       	subi	r28, 0x6A	; 106
    244a:	df 4f       	sbci	r29, 0xFF	; 255
    244c:	88 81       	ld	r24, Y
    244e:	c6 59       	subi	r28, 0x96	; 150
    2450:	d0 40       	sbci	r29, 0x00	; 0
    2452:	88 23       	and	r24, r24
    2454:	31 f6       	brne	.-116    	; 0x23e2 <Write_O+0x694>
		DIO_u8WritePinVal(latch,0);
    2456:	83 e1       	ldi	r24, 0x13	; 19
    2458:	60 e0       	ldi	r22, 0x00	; 0
    245a:	0e 94 cd 00 	call	0x19a	; 0x19a <DIO_u8WritePinVal>

		cols(cold_O);
    245e:	ce 01       	movw	r24, r28
    2460:	82 5b       	subi	r24, 0xB2	; 178
    2462:	9f 4f       	sbci	r25, 0xFF	; 255
    2464:	0e 94 77 15 	call	0x2aee	; 0x2aee <cols>
		rows(rowd_O);
    2468:	ce 01       	movw	r24, r28
    246a:	8a 5a       	subi	r24, 0xAA	; 170
    246c:	9f 4f       	sbci	r25, 0xFF	; 255
    246e:	0e 94 18 15 	call	0x2a30	; 0x2a30 <rows>
		DIO_u8WritePinVal(latch,1);
    2472:	83 e1       	ldi	r24, 0x13	; 19
    2474:	61 e0       	ldi	r22, 0x01	; 1
    2476:	0e 94 cd 00 	call	0x19a	; 0x19a <DIO_u8WritePinVal>
		DELAY(0.001);
    247a:	1e 86       	std	Y+14, r1	; 0x0e
    247c:	1d 86       	std	Y+13, r1	; 0x0d
    247e:	1f c0       	rjmp	.+62     	; 0x24be <Write_O+0x770>
    2480:	88 e2       	ldi	r24, 0x28	; 40
    2482:	9a e0       	ldi	r25, 0x0A	; 10
    2484:	98 8b       	std	Y+16, r25	; 0x10
    2486:	8f 87       	std	Y+15, r24	; 0x0f
    2488:	cb 56       	subi	r28, 0x6B	; 107
    248a:	df 4f       	sbci	r29, 0xFF	; 255
    248c:	18 82       	st	Y, r1
    248e:	c5 59       	subi	r28, 0x95	; 149
    2490:	d0 40       	sbci	r29, 0x00	; 0
    2492:	8f 85       	ldd	r24, Y+15	; 0x0f
    2494:	98 89       	ldd	r25, Y+16	; 0x10
    2496:	00 97       	sbiw	r24, 0x00	; 0
    2498:	31 f0       	breq	.+12     	; 0x24a6 <Write_O+0x758>
    249a:	91 e0       	ldi	r25, 0x01	; 1
    249c:	cb 56       	subi	r28, 0x6B	; 107
    249e:	df 4f       	sbci	r29, 0xFF	; 255
    24a0:	98 83       	st	Y, r25
    24a2:	c5 59       	subi	r28, 0x95	; 149
    24a4:	d0 40       	sbci	r29, 0x00	; 0
    24a6:	8f 85       	ldd	r24, Y+15	; 0x0f
    24a8:	98 89       	ldd	r25, Y+16	; 0x10
    24aa:	01 97       	sbiw	r24, 0x01	; 1
    24ac:	98 8b       	std	Y+16, r25	; 0x10
    24ae:	8f 87       	std	Y+15, r24	; 0x0f
    24b0:	cb 56       	subi	r28, 0x6B	; 107
    24b2:	df 4f       	sbci	r29, 0xFF	; 255
    24b4:	a8 81       	ld	r26, Y
    24b6:	c5 59       	subi	r28, 0x95	; 149
    24b8:	d0 40       	sbci	r29, 0x00	; 0
    24ba:	aa 23       	and	r26, r26
    24bc:	29 f7       	brne	.-54     	; 0x2488 <Write_O+0x73a>
    24be:	cc 56       	subi	r28, 0x6C	; 108
    24c0:	df 4f       	sbci	r29, 0xFF	; 255
    24c2:	18 82       	st	Y, r1
    24c4:	c4 59       	subi	r28, 0x94	; 148
    24c6:	d0 40       	sbci	r29, 0x00	; 0
    24c8:	8d 85       	ldd	r24, Y+13	; 0x0d
    24ca:	9e 85       	ldd	r25, Y+14	; 0x0e
    24cc:	00 97       	sbiw	r24, 0x00	; 0
    24ce:	31 f0       	breq	.+12     	; 0x24dc <Write_O+0x78e>
    24d0:	b1 e0       	ldi	r27, 0x01	; 1
    24d2:	cc 56       	subi	r28, 0x6C	; 108
    24d4:	df 4f       	sbci	r29, 0xFF	; 255
    24d6:	b8 83       	st	Y, r27
    24d8:	c4 59       	subi	r28, 0x94	; 148
    24da:	d0 40       	sbci	r29, 0x00	; 0
    24dc:	8d 85       	ldd	r24, Y+13	; 0x0d
    24de:	9e 85       	ldd	r25, Y+14	; 0x0e
    24e0:	01 97       	sbiw	r24, 0x01	; 1
    24e2:	9e 87       	std	Y+14, r25	; 0x0e
    24e4:	8d 87       	std	Y+13, r24	; 0x0d
    24e6:	cc 56       	subi	r28, 0x6C	; 108
    24e8:	df 4f       	sbci	r29, 0xFF	; 255
    24ea:	e8 81       	ld	r30, Y
    24ec:	c4 59       	subi	r28, 0x94	; 148
    24ee:	d0 40       	sbci	r29, 0x00	; 0
    24f0:	ee 23       	and	r30, r30
    24f2:	31 f6       	brne	.-116    	; 0x2480 <Write_O+0x732>
		DIO_u8WritePinVal(latch,0);
    24f4:	83 e1       	ldi	r24, 0x13	; 19
    24f6:	60 e0       	ldi	r22, 0x00	; 0
    24f8:	0e 94 cd 00 	call	0x19a	; 0x19a <DIO_u8WritePinVal>

		cols(cole_O);
    24fc:	ce 01       	movw	r24, r28
    24fe:	82 5a       	subi	r24, 0xA2	; 162
    2500:	9f 4f       	sbci	r25, 0xFF	; 255
    2502:	0e 94 77 15 	call	0x2aee	; 0x2aee <cols>
		rows(rowe_O);
    2506:	ce 01       	movw	r24, r28
    2508:	8a 59       	subi	r24, 0x9A	; 154
    250a:	9f 4f       	sbci	r25, 0xFF	; 255
    250c:	0e 94 18 15 	call	0x2a30	; 0x2a30 <rows>
		DIO_u8WritePinVal(latch,1);
    2510:	83 e1       	ldi	r24, 0x13	; 19
    2512:	61 e0       	ldi	r22, 0x01	; 1
    2514:	0e 94 cd 00 	call	0x19a	; 0x19a <DIO_u8WritePinVal>
		DELAY(0.001);
    2518:	1a 86       	std	Y+10, r1	; 0x0a
    251a:	19 86       	std	Y+9, r1	; 0x09
    251c:	1f c0       	rjmp	.+62     	; 0x255c <Write_O+0x80e>
    251e:	88 e2       	ldi	r24, 0x28	; 40
    2520:	9a e0       	ldi	r25, 0x0A	; 10
    2522:	9c 87       	std	Y+12, r25	; 0x0c
    2524:	8b 87       	std	Y+11, r24	; 0x0b
    2526:	cd 56       	subi	r28, 0x6D	; 109
    2528:	df 4f       	sbci	r29, 0xFF	; 255
    252a:	18 82       	st	Y, r1
    252c:	c3 59       	subi	r28, 0x93	; 147
    252e:	d0 40       	sbci	r29, 0x00	; 0
    2530:	8b 85       	ldd	r24, Y+11	; 0x0b
    2532:	9c 85       	ldd	r25, Y+12	; 0x0c
    2534:	00 97       	sbiw	r24, 0x00	; 0
    2536:	31 f0       	breq	.+12     	; 0x2544 <Write_O+0x7f6>
    2538:	f1 e0       	ldi	r31, 0x01	; 1
    253a:	cd 56       	subi	r28, 0x6D	; 109
    253c:	df 4f       	sbci	r29, 0xFF	; 255
    253e:	f8 83       	st	Y, r31
    2540:	c3 59       	subi	r28, 0x93	; 147
    2542:	d0 40       	sbci	r29, 0x00	; 0
    2544:	8b 85       	ldd	r24, Y+11	; 0x0b
    2546:	9c 85       	ldd	r25, Y+12	; 0x0c
    2548:	01 97       	sbiw	r24, 0x01	; 1
    254a:	9c 87       	std	Y+12, r25	; 0x0c
    254c:	8b 87       	std	Y+11, r24	; 0x0b
    254e:	cd 56       	subi	r28, 0x6D	; 109
    2550:	df 4f       	sbci	r29, 0xFF	; 255
    2552:	88 81       	ld	r24, Y
    2554:	c3 59       	subi	r28, 0x93	; 147
    2556:	d0 40       	sbci	r29, 0x00	; 0
    2558:	88 23       	and	r24, r24
    255a:	29 f7       	brne	.-54     	; 0x2526 <Write_O+0x7d8>
    255c:	ce 56       	subi	r28, 0x6E	; 110
    255e:	df 4f       	sbci	r29, 0xFF	; 255
    2560:	18 82       	st	Y, r1
    2562:	c2 59       	subi	r28, 0x92	; 146
    2564:	d0 40       	sbci	r29, 0x00	; 0
    2566:	89 85       	ldd	r24, Y+9	; 0x09
    2568:	9a 85       	ldd	r25, Y+10	; 0x0a
    256a:	00 97       	sbiw	r24, 0x00	; 0
    256c:	31 f0       	breq	.+12     	; 0x257a <Write_O+0x82c>
    256e:	91 e0       	ldi	r25, 0x01	; 1
    2570:	ce 56       	subi	r28, 0x6E	; 110
    2572:	df 4f       	sbci	r29, 0xFF	; 255
    2574:	98 83       	st	Y, r25
    2576:	c2 59       	subi	r28, 0x92	; 146
    2578:	d0 40       	sbci	r29, 0x00	; 0
    257a:	89 85       	ldd	r24, Y+9	; 0x09
    257c:	9a 85       	ldd	r25, Y+10	; 0x0a
    257e:	01 97       	sbiw	r24, 0x01	; 1
    2580:	9a 87       	std	Y+10, r25	; 0x0a
    2582:	89 87       	std	Y+9, r24	; 0x09
    2584:	ce 56       	subi	r28, 0x6E	; 110
    2586:	df 4f       	sbci	r29, 0xFF	; 255
    2588:	a8 81       	ld	r26, Y
    258a:	c2 59       	subi	r28, 0x92	; 146
    258c:	d0 40       	sbci	r29, 0x00	; 0
    258e:	aa 23       	and	r26, r26
    2590:	31 f6       	brne	.-116    	; 0x251e <Write_O+0x7d0>
		DIO_u8WritePinVal(latch,0);
    2592:	83 e1       	ldi	r24, 0x13	; 19
    2594:	60 e0       	ldi	r22, 0x00	; 0
    2596:	0e 94 cd 00 	call	0x19a	; 0x19a <DIO_u8WritePinVal>

		cols(colf_O);
    259a:	ce 01       	movw	r24, r28
    259c:	82 59       	subi	r24, 0x92	; 146
    259e:	9f 4f       	sbci	r25, 0xFF	; 255
    25a0:	0e 94 77 15 	call	0x2aee	; 0x2aee <cols>
		rows(rowf_O);
    25a4:	ce 01       	movw	r24, r28
    25a6:	8a 58       	subi	r24, 0x8A	; 138
    25a8:	9f 4f       	sbci	r25, 0xFF	; 255
    25aa:	0e 94 18 15 	call	0x2a30	; 0x2a30 <rows>
		DIO_u8WritePinVal(latch,1);
    25ae:	83 e1       	ldi	r24, 0x13	; 19
    25b0:	61 e0       	ldi	r22, 0x01	; 1
    25b2:	0e 94 cd 00 	call	0x19a	; 0x19a <DIO_u8WritePinVal>
		DELAY(0.001);
    25b6:	1e 82       	std	Y+6, r1	; 0x06
    25b8:	1d 82       	std	Y+5, r1	; 0x05
    25ba:	1f c0       	rjmp	.+62     	; 0x25fa <Write_O+0x8ac>
    25bc:	88 e2       	ldi	r24, 0x28	; 40
    25be:	9a e0       	ldi	r25, 0x0A	; 10
    25c0:	98 87       	std	Y+8, r25	; 0x08
    25c2:	8f 83       	std	Y+7, r24	; 0x07
    25c4:	cf 56       	subi	r28, 0x6F	; 111
    25c6:	df 4f       	sbci	r29, 0xFF	; 255
    25c8:	18 82       	st	Y, r1
    25ca:	c1 59       	subi	r28, 0x91	; 145
    25cc:	d0 40       	sbci	r29, 0x00	; 0
    25ce:	8f 81       	ldd	r24, Y+7	; 0x07
    25d0:	98 85       	ldd	r25, Y+8	; 0x08
    25d2:	00 97       	sbiw	r24, 0x00	; 0
    25d4:	31 f0       	breq	.+12     	; 0x25e2 <Write_O+0x894>
    25d6:	b1 e0       	ldi	r27, 0x01	; 1
    25d8:	cf 56       	subi	r28, 0x6F	; 111
    25da:	df 4f       	sbci	r29, 0xFF	; 255
    25dc:	b8 83       	st	Y, r27
    25de:	c1 59       	subi	r28, 0x91	; 145
    25e0:	d0 40       	sbci	r29, 0x00	; 0
    25e2:	8f 81       	ldd	r24, Y+7	; 0x07
    25e4:	98 85       	ldd	r25, Y+8	; 0x08
    25e6:	01 97       	sbiw	r24, 0x01	; 1
    25e8:	98 87       	std	Y+8, r25	; 0x08
    25ea:	8f 83       	std	Y+7, r24	; 0x07
    25ec:	cf 56       	subi	r28, 0x6F	; 111
    25ee:	df 4f       	sbci	r29, 0xFF	; 255
    25f0:	e8 81       	ld	r30, Y
    25f2:	c1 59       	subi	r28, 0x91	; 145
    25f4:	d0 40       	sbci	r29, 0x00	; 0
    25f6:	ee 23       	and	r30, r30
    25f8:	29 f7       	brne	.-54     	; 0x25c4 <Write_O+0x876>
    25fa:	c0 57       	subi	r28, 0x70	; 112
    25fc:	df 4f       	sbci	r29, 0xFF	; 255
    25fe:	18 82       	st	Y, r1
    2600:	c0 59       	subi	r28, 0x90	; 144
    2602:	d0 40       	sbci	r29, 0x00	; 0
    2604:	8d 81       	ldd	r24, Y+5	; 0x05
    2606:	9e 81       	ldd	r25, Y+6	; 0x06
    2608:	00 97       	sbiw	r24, 0x00	; 0
    260a:	31 f0       	breq	.+12     	; 0x2618 <Write_O+0x8ca>
    260c:	f1 e0       	ldi	r31, 0x01	; 1
    260e:	c0 57       	subi	r28, 0x70	; 112
    2610:	df 4f       	sbci	r29, 0xFF	; 255
    2612:	f8 83       	st	Y, r31
    2614:	c0 59       	subi	r28, 0x90	; 144
    2616:	d0 40       	sbci	r29, 0x00	; 0
    2618:	8d 81       	ldd	r24, Y+5	; 0x05
    261a:	9e 81       	ldd	r25, Y+6	; 0x06
    261c:	01 97       	sbiw	r24, 0x01	; 1
    261e:	9e 83       	std	Y+6, r25	; 0x06
    2620:	8d 83       	std	Y+5, r24	; 0x05
    2622:	c0 57       	subi	r28, 0x70	; 112
    2624:	df 4f       	sbci	r29, 0xFF	; 255
    2626:	88 81       	ld	r24, Y
    2628:	c0 59       	subi	r28, 0x90	; 144
    262a:	d0 40       	sbci	r29, 0x00	; 0
    262c:	88 23       	and	r24, r24
    262e:	31 f6       	brne	.-116    	; 0x25bc <Write_O+0x86e>
		DIO_u8WritePinVal(latch,0);
    2630:	83 e1       	ldi	r24, 0x13	; 19
    2632:	60 e0       	ldi	r22, 0x00	; 0
    2634:	0e 94 cd 00 	call	0x19a	; 0x19a <DIO_u8WritePinVal>

		cols(colg_O);
    2638:	ce 01       	movw	r24, r28
    263a:	82 58       	subi	r24, 0x82	; 130
    263c:	9f 4f       	sbci	r25, 0xFF	; 255
    263e:	0e 94 77 15 	call	0x2aee	; 0x2aee <cols>
		rows(rowg_O);
    2642:	ce 01       	movw	r24, r28
    2644:	8a 57       	subi	r24, 0x7A	; 122
    2646:	9f 4f       	sbci	r25, 0xFF	; 255
    2648:	0e 94 18 15 	call	0x2a30	; 0x2a30 <rows>
		DIO_u8WritePinVal(latch,1);
    264c:	83 e1       	ldi	r24, 0x13	; 19
    264e:	61 e0       	ldi	r22, 0x01	; 1
    2650:	0e 94 cd 00 	call	0x19a	; 0x19a <DIO_u8WritePinVal>
		DELAY(0.001);
    2654:	1a 82       	std	Y+2, r1	; 0x02
    2656:	19 82       	std	Y+1, r1	; 0x01
    2658:	1f c0       	rjmp	.+62     	; 0x2698 <Write_O+0x94a>
    265a:	88 e2       	ldi	r24, 0x28	; 40
    265c:	9a e0       	ldi	r25, 0x0A	; 10
    265e:	9c 83       	std	Y+4, r25	; 0x04
    2660:	8b 83       	std	Y+3, r24	; 0x03
    2662:	c1 57       	subi	r28, 0x71	; 113
    2664:	df 4f       	sbci	r29, 0xFF	; 255
    2666:	18 82       	st	Y, r1
    2668:	cf 58       	subi	r28, 0x8F	; 143
    266a:	d0 40       	sbci	r29, 0x00	; 0
    266c:	8b 81       	ldd	r24, Y+3	; 0x03
    266e:	9c 81       	ldd	r25, Y+4	; 0x04
    2670:	00 97       	sbiw	r24, 0x00	; 0
    2672:	31 f0       	breq	.+12     	; 0x2680 <Write_O+0x932>
    2674:	91 e0       	ldi	r25, 0x01	; 1
    2676:	c1 57       	subi	r28, 0x71	; 113
    2678:	df 4f       	sbci	r29, 0xFF	; 255
    267a:	98 83       	st	Y, r25
    267c:	cf 58       	subi	r28, 0x8F	; 143
    267e:	d0 40       	sbci	r29, 0x00	; 0
    2680:	8b 81       	ldd	r24, Y+3	; 0x03
    2682:	9c 81       	ldd	r25, Y+4	; 0x04
    2684:	01 97       	sbiw	r24, 0x01	; 1
    2686:	9c 83       	std	Y+4, r25	; 0x04
    2688:	8b 83       	std	Y+3, r24	; 0x03
    268a:	c1 57       	subi	r28, 0x71	; 113
    268c:	df 4f       	sbci	r29, 0xFF	; 255
    268e:	a8 81       	ld	r26, Y
    2690:	cf 58       	subi	r28, 0x8F	; 143
    2692:	d0 40       	sbci	r29, 0x00	; 0
    2694:	aa 23       	and	r26, r26
    2696:	29 f7       	brne	.-54     	; 0x2662 <Write_O+0x914>
    2698:	c2 57       	subi	r28, 0x72	; 114
    269a:	df 4f       	sbci	r29, 0xFF	; 255
    269c:	18 82       	st	Y, r1
    269e:	ce 58       	subi	r28, 0x8E	; 142
    26a0:	d0 40       	sbci	r29, 0x00	; 0
    26a2:	89 81       	ldd	r24, Y+1	; 0x01
    26a4:	9a 81       	ldd	r25, Y+2	; 0x02
    26a6:	00 97       	sbiw	r24, 0x00	; 0
    26a8:	31 f0       	breq	.+12     	; 0x26b6 <Write_O+0x968>
    26aa:	b1 e0       	ldi	r27, 0x01	; 1
    26ac:	c2 57       	subi	r28, 0x72	; 114
    26ae:	df 4f       	sbci	r29, 0xFF	; 255
    26b0:	b8 83       	st	Y, r27
    26b2:	ce 58       	subi	r28, 0x8E	; 142
    26b4:	d0 40       	sbci	r29, 0x00	; 0
    26b6:	89 81       	ldd	r24, Y+1	; 0x01
    26b8:	9a 81       	ldd	r25, Y+2	; 0x02
    26ba:	01 97       	sbiw	r24, 0x01	; 1
    26bc:	9a 83       	std	Y+2, r25	; 0x02
    26be:	89 83       	std	Y+1, r24	; 0x01
    26c0:	c2 57       	subi	r28, 0x72	; 114
    26c2:	df 4f       	sbci	r29, 0xFF	; 255
    26c4:	e8 81       	ld	r30, Y
    26c6:	ce 58       	subi	r28, 0x8E	; 142
    26c8:	d0 40       	sbci	r29, 0x00	; 0
    26ca:	ee 23       	and	r30, r30
    26cc:	31 f6       	brne	.-116    	; 0x265a <Write_O+0x90c>
		DIO_u8WritePinVal(latch,0);
    26ce:	83 e1       	ldi	r24, 0x13	; 19
    26d0:	60 e0       	ldi	r22, 0x00	; 0
    26d2:	0e 94 cd 00 	call	0x19a	; 0x19a <DIO_u8WritePinVal>

		x--;
    26d6:	8d 8d       	ldd	r24, Y+29	; 0x1d
    26d8:	81 50       	subi	r24, 0x01	; 1
    26da:	8d 8f       	std	Y+29, r24	; 0x1d
		u8 rowf_O[]={0,1,0,0,0,0,1,0};
		u8 colg_O[]={0,0,0,0,0,0,1,0};
		u8 rowg_O[]={0,0,1,1,1,1,0,0};

		u8 x = 30 ;
		while(x)
    26dc:	8d 8d       	ldd	r24, Y+29	; 0x1d
    26de:	88 23       	and	r24, r24
    26e0:	09 f0       	breq	.+2      	; 0x26e4 <Write_O+0x996>
    26e2:	d5 cd       	rjmp	.-1110   	; 0x228e <Write_O+0x540>
		DELAY(0.001);
		DIO_u8WritePinVal(latch,0);

		x--;
		}
}
    26e4:	c2 54       	subi	r28, 0x42	; 66
    26e6:	df 4f       	sbci	r29, 0xFF	; 255
    26e8:	0f b6       	in	r0, 0x3f	; 63
    26ea:	f8 94       	cli
    26ec:	de bf       	out	0x3e, r29	; 62
    26ee:	0f be       	out	0x3f, r0	; 63
    26f0:	cd bf       	out	0x3d, r28	; 61
    26f2:	cf 91       	pop	r28
    26f4:	df 91       	pop	r29
    26f6:	08 95       	ret

000026f8 <Write_H>:

void Write_H(void)
{
    26f8:	df 93       	push	r29
    26fa:	cf 93       	push	r28
    26fc:	cd b7       	in	r28, 0x3d	; 61
    26fe:	de b7       	in	r29, 0x3e	; 62
    2700:	c2 55       	subi	r28, 0x52	; 82
    2702:	d0 40       	sbci	r29, 0x00	; 0
    2704:	0f b6       	in	r0, 0x3f	; 63
    2706:	f8 94       	cli
    2708:	de bf       	out	0x3e, r29	; 62
    270a:	0f be       	out	0x3f, r0	; 63
    270c:	cd bf       	out	0x3d, r28	; 61
	u8 cola_H[]={1,0,0,0,0,0,0,0};
    270e:	88 e0       	ldi	r24, 0x08	; 8
    2710:	fe 01       	movw	r30, r28
    2712:	3e 96       	adiw	r30, 0x0e	; 14
    2714:	df 01       	movw	r26, r30
    2716:	98 2f       	mov	r25, r24
    2718:	1d 92       	st	X+, r1
    271a:	9a 95       	dec	r25
    271c:	e9 f7       	brne	.-6      	; 0x2718 <Write_H+0x20>
    271e:	81 e0       	ldi	r24, 0x01	; 1
    2720:	8e 87       	std	Y+14, r24	; 0x0e
	u8 rowa_H[]={1,1,1,1,1,1,1,0};
    2722:	de 01       	movw	r26, r28
    2724:	56 96       	adiw	r26, 0x16	; 22
    2726:	26 96       	adiw	r28, 0x06	; 6
    2728:	bf af       	std	Y+63, r27	; 0x3f
    272a:	ae af       	std	Y+62, r26	; 0x3e
    272c:	26 97       	sbiw	r28, 0x06	; 6
    272e:	e3 e2       	ldi	r30, 0x23	; 35
    2730:	f1 e0       	ldi	r31, 0x01	; 1
    2732:	28 96       	adiw	r28, 0x08	; 8
    2734:	ff af       	std	Y+63, r31	; 0x3f
    2736:	ee af       	std	Y+62, r30	; 0x3e
    2738:	28 97       	sbiw	r28, 0x08	; 8
    273a:	f8 e0       	ldi	r31, 0x08	; 8
    273c:	29 96       	adiw	r28, 0x09	; 9
    273e:	ff af       	std	Y+63, r31	; 0x3f
    2740:	29 97       	sbiw	r28, 0x09	; 9
    2742:	28 96       	adiw	r28, 0x08	; 8
    2744:	ae ad       	ldd	r26, Y+62	; 0x3e
    2746:	bf ad       	ldd	r27, Y+63	; 0x3f
    2748:	28 97       	sbiw	r28, 0x08	; 8
    274a:	0c 90       	ld	r0, X
    274c:	28 96       	adiw	r28, 0x08	; 8
    274e:	ee ad       	ldd	r30, Y+62	; 0x3e
    2750:	ff ad       	ldd	r31, Y+63	; 0x3f
    2752:	28 97       	sbiw	r28, 0x08	; 8
    2754:	31 96       	adiw	r30, 0x01	; 1
    2756:	28 96       	adiw	r28, 0x08	; 8
    2758:	ff af       	std	Y+63, r31	; 0x3f
    275a:	ee af       	std	Y+62, r30	; 0x3e
    275c:	28 97       	sbiw	r28, 0x08	; 8
    275e:	26 96       	adiw	r28, 0x06	; 6
    2760:	ae ad       	ldd	r26, Y+62	; 0x3e
    2762:	bf ad       	ldd	r27, Y+63	; 0x3f
    2764:	26 97       	sbiw	r28, 0x06	; 6
    2766:	0c 92       	st	X, r0
    2768:	26 96       	adiw	r28, 0x06	; 6
    276a:	ee ad       	ldd	r30, Y+62	; 0x3e
    276c:	ff ad       	ldd	r31, Y+63	; 0x3f
    276e:	26 97       	sbiw	r28, 0x06	; 6
    2770:	31 96       	adiw	r30, 0x01	; 1
    2772:	26 96       	adiw	r28, 0x06	; 6
    2774:	ff af       	std	Y+63, r31	; 0x3f
    2776:	ee af       	std	Y+62, r30	; 0x3e
    2778:	26 97       	sbiw	r28, 0x06	; 6
    277a:	29 96       	adiw	r28, 0x09	; 9
    277c:	ff ad       	ldd	r31, Y+63	; 0x3f
    277e:	29 97       	sbiw	r28, 0x09	; 9
    2780:	f1 50       	subi	r31, 0x01	; 1
    2782:	29 96       	adiw	r28, 0x09	; 9
    2784:	ff af       	std	Y+63, r31	; 0x3f
    2786:	29 97       	sbiw	r28, 0x09	; 9
    2788:	29 96       	adiw	r28, 0x09	; 9
    278a:	8f ad       	ldd	r24, Y+63	; 0x3f
    278c:	29 97       	sbiw	r28, 0x09	; 9
    278e:	88 23       	and	r24, r24
    2790:	c1 f6       	brne	.-80     	; 0x2742 <Write_H+0x4a>
	u8 colb_H[]={1,1,1,1,1,1,1,1};
    2792:	de 01       	movw	r26, r28
    2794:	5e 96       	adiw	r26, 0x1e	; 30
    2796:	2b 96       	adiw	r28, 0x0b	; 11
    2798:	bf af       	std	Y+63, r27	; 0x3f
    279a:	ae af       	std	Y+62, r26	; 0x3e
    279c:	2b 97       	sbiw	r28, 0x0b	; 11
    279e:	eb e1       	ldi	r30, 0x1B	; 27
    27a0:	f1 e0       	ldi	r31, 0x01	; 1
    27a2:	2d 96       	adiw	r28, 0x0d	; 13
    27a4:	ff af       	std	Y+63, r31	; 0x3f
    27a6:	ee af       	std	Y+62, r30	; 0x3e
    27a8:	2d 97       	sbiw	r28, 0x0d	; 13
    27aa:	f8 e0       	ldi	r31, 0x08	; 8
    27ac:	2e 96       	adiw	r28, 0x0e	; 14
    27ae:	ff af       	std	Y+63, r31	; 0x3f
    27b0:	2e 97       	sbiw	r28, 0x0e	; 14
    27b2:	2d 96       	adiw	r28, 0x0d	; 13
    27b4:	ae ad       	ldd	r26, Y+62	; 0x3e
    27b6:	bf ad       	ldd	r27, Y+63	; 0x3f
    27b8:	2d 97       	sbiw	r28, 0x0d	; 13
    27ba:	0c 90       	ld	r0, X
    27bc:	2d 96       	adiw	r28, 0x0d	; 13
    27be:	ee ad       	ldd	r30, Y+62	; 0x3e
    27c0:	ff ad       	ldd	r31, Y+63	; 0x3f
    27c2:	2d 97       	sbiw	r28, 0x0d	; 13
    27c4:	31 96       	adiw	r30, 0x01	; 1
    27c6:	2d 96       	adiw	r28, 0x0d	; 13
    27c8:	ff af       	std	Y+63, r31	; 0x3f
    27ca:	ee af       	std	Y+62, r30	; 0x3e
    27cc:	2d 97       	sbiw	r28, 0x0d	; 13
    27ce:	2b 96       	adiw	r28, 0x0b	; 11
    27d0:	ae ad       	ldd	r26, Y+62	; 0x3e
    27d2:	bf ad       	ldd	r27, Y+63	; 0x3f
    27d4:	2b 97       	sbiw	r28, 0x0b	; 11
    27d6:	0c 92       	st	X, r0
    27d8:	2b 96       	adiw	r28, 0x0b	; 11
    27da:	ee ad       	ldd	r30, Y+62	; 0x3e
    27dc:	ff ad       	ldd	r31, Y+63	; 0x3f
    27de:	2b 97       	sbiw	r28, 0x0b	; 11
    27e0:	31 96       	adiw	r30, 0x01	; 1
    27e2:	2b 96       	adiw	r28, 0x0b	; 11
    27e4:	ff af       	std	Y+63, r31	; 0x3f
    27e6:	ee af       	std	Y+62, r30	; 0x3e
    27e8:	2b 97       	sbiw	r28, 0x0b	; 11
    27ea:	2e 96       	adiw	r28, 0x0e	; 14
    27ec:	ff ad       	ldd	r31, Y+63	; 0x3f
    27ee:	2e 97       	sbiw	r28, 0x0e	; 14
    27f0:	f1 50       	subi	r31, 0x01	; 1
    27f2:	2e 96       	adiw	r28, 0x0e	; 14
    27f4:	ff af       	std	Y+63, r31	; 0x3f
    27f6:	2e 97       	sbiw	r28, 0x0e	; 14
    27f8:	2e 96       	adiw	r28, 0x0e	; 14
    27fa:	8f ad       	ldd	r24, Y+63	; 0x3f
    27fc:	2e 97       	sbiw	r28, 0x0e	; 14
    27fe:	88 23       	and	r24, r24
    2800:	c1 f6       	brne	.-80     	; 0x27b2 <Write_H+0xba>
	u8 rowb_H[]={0,0,0,1,0,0,0,0};
    2802:	88 e0       	ldi	r24, 0x08	; 8
    2804:	fe 01       	movw	r30, r28
    2806:	b6 96       	adiw	r30, 0x26	; 38
    2808:	df 01       	movw	r26, r30
    280a:	98 2f       	mov	r25, r24
    280c:	1d 92       	st	X+, r1
    280e:	9a 95       	dec	r25
    2810:	e9 f7       	brne	.-6      	; 0x280c <Write_H+0x114>
    2812:	81 e0       	ldi	r24, 0x01	; 1
    2814:	89 a7       	std	Y+41, r24	; 0x29
	u8 colc_H[]={0,0,0,0,0,0,0,1};
    2816:	88 e0       	ldi	r24, 0x08	; 8
    2818:	fe 01       	movw	r30, r28
    281a:	be 96       	adiw	r30, 0x2e	; 46
    281c:	df 01       	movw	r26, r30
    281e:	98 2f       	mov	r25, r24
    2820:	1d 92       	st	X+, r1
    2822:	9a 95       	dec	r25
    2824:	e9 f7       	brne	.-6      	; 0x2820 <Write_H+0x128>
    2826:	81 e0       	ldi	r24, 0x01	; 1
    2828:	8d ab       	std	Y+53, r24	; 0x35
	u8 rowc_H[]={1,1,1,1,1,1,1,0};
    282a:	de 01       	movw	r26, r28
    282c:	d6 96       	adiw	r26, 0x36	; 54
    282e:	60 96       	adiw	r28, 0x10	; 16
    2830:	bf af       	std	Y+63, r27	; 0x3f
    2832:	ae af       	std	Y+62, r26	; 0x3e
    2834:	60 97       	sbiw	r28, 0x10	; 16
    2836:	e3 e1       	ldi	r30, 0x13	; 19
    2838:	f1 e0       	ldi	r31, 0x01	; 1
    283a:	62 96       	adiw	r28, 0x12	; 18
    283c:	ff af       	std	Y+63, r31	; 0x3f
    283e:	ee af       	std	Y+62, r30	; 0x3e
    2840:	62 97       	sbiw	r28, 0x12	; 18
    2842:	f8 e0       	ldi	r31, 0x08	; 8
    2844:	63 96       	adiw	r28, 0x13	; 19
    2846:	ff af       	std	Y+63, r31	; 0x3f
    2848:	63 97       	sbiw	r28, 0x13	; 19
    284a:	62 96       	adiw	r28, 0x12	; 18
    284c:	ae ad       	ldd	r26, Y+62	; 0x3e
    284e:	bf ad       	ldd	r27, Y+63	; 0x3f
    2850:	62 97       	sbiw	r28, 0x12	; 18
    2852:	0c 90       	ld	r0, X
    2854:	62 96       	adiw	r28, 0x12	; 18
    2856:	ee ad       	ldd	r30, Y+62	; 0x3e
    2858:	ff ad       	ldd	r31, Y+63	; 0x3f
    285a:	62 97       	sbiw	r28, 0x12	; 18
    285c:	31 96       	adiw	r30, 0x01	; 1
    285e:	62 96       	adiw	r28, 0x12	; 18
    2860:	ff af       	std	Y+63, r31	; 0x3f
    2862:	ee af       	std	Y+62, r30	; 0x3e
    2864:	62 97       	sbiw	r28, 0x12	; 18
    2866:	60 96       	adiw	r28, 0x10	; 16
    2868:	ae ad       	ldd	r26, Y+62	; 0x3e
    286a:	bf ad       	ldd	r27, Y+63	; 0x3f
    286c:	60 97       	sbiw	r28, 0x10	; 16
    286e:	0c 92       	st	X, r0
    2870:	60 96       	adiw	r28, 0x10	; 16
    2872:	ee ad       	ldd	r30, Y+62	; 0x3e
    2874:	ff ad       	ldd	r31, Y+63	; 0x3f
    2876:	60 97       	sbiw	r28, 0x10	; 16
    2878:	31 96       	adiw	r30, 0x01	; 1
    287a:	60 96       	adiw	r28, 0x10	; 16
    287c:	ff af       	std	Y+63, r31	; 0x3f
    287e:	ee af       	std	Y+62, r30	; 0x3e
    2880:	60 97       	sbiw	r28, 0x10	; 16
    2882:	63 96       	adiw	r28, 0x13	; 19
    2884:	ff ad       	ldd	r31, Y+63	; 0x3f
    2886:	63 97       	sbiw	r28, 0x13	; 19
    2888:	f1 50       	subi	r31, 0x01	; 1
    288a:	63 96       	adiw	r28, 0x13	; 19
    288c:	ff af       	std	Y+63, r31	; 0x3f
    288e:	63 97       	sbiw	r28, 0x13	; 19
    2890:	63 96       	adiw	r28, 0x13	; 19
    2892:	8f ad       	ldd	r24, Y+63	; 0x3f
    2894:	63 97       	sbiw	r28, 0x13	; 19
    2896:	88 23       	and	r24, r24
    2898:	c1 f6       	brne	.-80     	; 0x284a <Write_H+0x152>


	u8 x = 50 ;
    289a:	82 e3       	ldi	r24, 0x32	; 50
    289c:	8d 87       	std	Y+13, r24	; 0x0d
    289e:	ba c0       	rjmp	.+372    	; 0x2a14 <Write_H+0x31c>
			while(x)
			{

cols(cola_H);
    28a0:	ce 01       	movw	r24, r28
    28a2:	0e 96       	adiw	r24, 0x0e	; 14
    28a4:	0e 94 77 15 	call	0x2aee	; 0x2aee <cols>
rows(rowa_H);
    28a8:	ce 01       	movw	r24, r28
    28aa:	46 96       	adiw	r24, 0x16	; 22
    28ac:	0e 94 18 15 	call	0x2a30	; 0x2a30 <rows>
DIO_u8WritePinVal(latch,1);
    28b0:	83 e1       	ldi	r24, 0x13	; 19
    28b2:	61 e0       	ldi	r22, 0x01	; 1
    28b4:	0e 94 cd 00 	call	0x19a	; 0x19a <DIO_u8WritePinVal>
DELAY(0.001);
    28b8:	1a 86       	std	Y+10, r1	; 0x0a
    28ba:	19 86       	std	Y+9, r1	; 0x09
    28bc:	19 c0       	rjmp	.+50     	; 0x28f0 <Write_H+0x1f8>
    28be:	88 e2       	ldi	r24, 0x28	; 40
    28c0:	9a e0       	ldi	r25, 0x0A	; 10
    28c2:	9c 87       	std	Y+12, r25	; 0x0c
    28c4:	8b 87       	std	Y+11, r24	; 0x0b
    28c6:	24 96       	adiw	r28, 0x04	; 4
    28c8:	1f ae       	std	Y+63, r1	; 0x3f
    28ca:	24 97       	sbiw	r28, 0x04	; 4
    28cc:	8b 85       	ldd	r24, Y+11	; 0x0b
    28ce:	9c 85       	ldd	r25, Y+12	; 0x0c
    28d0:	00 97       	sbiw	r24, 0x00	; 0
    28d2:	21 f0       	breq	.+8      	; 0x28dc <Write_H+0x1e4>
    28d4:	91 e0       	ldi	r25, 0x01	; 1
    28d6:	24 96       	adiw	r28, 0x04	; 4
    28d8:	9f af       	std	Y+63, r25	; 0x3f
    28da:	24 97       	sbiw	r28, 0x04	; 4
    28dc:	8b 85       	ldd	r24, Y+11	; 0x0b
    28de:	9c 85       	ldd	r25, Y+12	; 0x0c
    28e0:	01 97       	sbiw	r24, 0x01	; 1
    28e2:	9c 87       	std	Y+12, r25	; 0x0c
    28e4:	8b 87       	std	Y+11, r24	; 0x0b
    28e6:	24 96       	adiw	r28, 0x04	; 4
    28e8:	af ad       	ldd	r26, Y+63	; 0x3f
    28ea:	24 97       	sbiw	r28, 0x04	; 4
    28ec:	aa 23       	and	r26, r26
    28ee:	59 f7       	brne	.-42     	; 0x28c6 <Write_H+0x1ce>
    28f0:	23 96       	adiw	r28, 0x03	; 3
    28f2:	1f ae       	std	Y+63, r1	; 0x3f
    28f4:	23 97       	sbiw	r28, 0x03	; 3
    28f6:	89 85       	ldd	r24, Y+9	; 0x09
    28f8:	9a 85       	ldd	r25, Y+10	; 0x0a
    28fa:	00 97       	sbiw	r24, 0x00	; 0
    28fc:	21 f0       	breq	.+8      	; 0x2906 <Write_H+0x20e>
    28fe:	b1 e0       	ldi	r27, 0x01	; 1
    2900:	23 96       	adiw	r28, 0x03	; 3
    2902:	bf af       	std	Y+63, r27	; 0x3f
    2904:	23 97       	sbiw	r28, 0x03	; 3
    2906:	89 85       	ldd	r24, Y+9	; 0x09
    2908:	9a 85       	ldd	r25, Y+10	; 0x0a
    290a:	01 97       	sbiw	r24, 0x01	; 1
    290c:	9a 87       	std	Y+10, r25	; 0x0a
    290e:	89 87       	std	Y+9, r24	; 0x09
    2910:	23 96       	adiw	r28, 0x03	; 3
    2912:	ef ad       	ldd	r30, Y+63	; 0x3f
    2914:	23 97       	sbiw	r28, 0x03	; 3
    2916:	ee 23       	and	r30, r30
    2918:	91 f6       	brne	.-92     	; 0x28be <Write_H+0x1c6>
DIO_u8WritePinVal(latch,0);
    291a:	83 e1       	ldi	r24, 0x13	; 19
    291c:	60 e0       	ldi	r22, 0x00	; 0
    291e:	0e 94 cd 00 	call	0x19a	; 0x19a <DIO_u8WritePinVal>

cols(colb_H);
    2922:	ce 01       	movw	r24, r28
    2924:	4e 96       	adiw	r24, 0x1e	; 30
    2926:	0e 94 77 15 	call	0x2aee	; 0x2aee <cols>
rows(rowb_H);
    292a:	ce 01       	movw	r24, r28
    292c:	86 96       	adiw	r24, 0x26	; 38
    292e:	0e 94 18 15 	call	0x2a30	; 0x2a30 <rows>
DIO_u8WritePinVal(latch,1);
    2932:	83 e1       	ldi	r24, 0x13	; 19
    2934:	61 e0       	ldi	r22, 0x01	; 1
    2936:	0e 94 cd 00 	call	0x19a	; 0x19a <DIO_u8WritePinVal>
DELAY(0.001);
    293a:	1e 82       	std	Y+6, r1	; 0x06
    293c:	1d 82       	std	Y+5, r1	; 0x05
    293e:	19 c0       	rjmp	.+50     	; 0x2972 <Write_H+0x27a>
    2940:	88 e2       	ldi	r24, 0x28	; 40
    2942:	9a e0       	ldi	r25, 0x0A	; 10
    2944:	98 87       	std	Y+8, r25	; 0x08
    2946:	8f 83       	std	Y+7, r24	; 0x07
    2948:	22 96       	adiw	r28, 0x02	; 2
    294a:	1f ae       	std	Y+63, r1	; 0x3f
    294c:	22 97       	sbiw	r28, 0x02	; 2
    294e:	8f 81       	ldd	r24, Y+7	; 0x07
    2950:	98 85       	ldd	r25, Y+8	; 0x08
    2952:	00 97       	sbiw	r24, 0x00	; 0
    2954:	21 f0       	breq	.+8      	; 0x295e <Write_H+0x266>
    2956:	f1 e0       	ldi	r31, 0x01	; 1
    2958:	22 96       	adiw	r28, 0x02	; 2
    295a:	ff af       	std	Y+63, r31	; 0x3f
    295c:	22 97       	sbiw	r28, 0x02	; 2
    295e:	8f 81       	ldd	r24, Y+7	; 0x07
    2960:	98 85       	ldd	r25, Y+8	; 0x08
    2962:	01 97       	sbiw	r24, 0x01	; 1
    2964:	98 87       	std	Y+8, r25	; 0x08
    2966:	8f 83       	std	Y+7, r24	; 0x07
    2968:	22 96       	adiw	r28, 0x02	; 2
    296a:	8f ad       	ldd	r24, Y+63	; 0x3f
    296c:	22 97       	sbiw	r28, 0x02	; 2
    296e:	88 23       	and	r24, r24
    2970:	59 f7       	brne	.-42     	; 0x2948 <Write_H+0x250>
    2972:	21 96       	adiw	r28, 0x01	; 1
    2974:	1f ae       	std	Y+63, r1	; 0x3f
    2976:	21 97       	sbiw	r28, 0x01	; 1
    2978:	8d 81       	ldd	r24, Y+5	; 0x05
    297a:	9e 81       	ldd	r25, Y+6	; 0x06
    297c:	00 97       	sbiw	r24, 0x00	; 0
    297e:	21 f0       	breq	.+8      	; 0x2988 <Write_H+0x290>
    2980:	91 e0       	ldi	r25, 0x01	; 1
    2982:	21 96       	adiw	r28, 0x01	; 1
    2984:	9f af       	std	Y+63, r25	; 0x3f
    2986:	21 97       	sbiw	r28, 0x01	; 1
    2988:	8d 81       	ldd	r24, Y+5	; 0x05
    298a:	9e 81       	ldd	r25, Y+6	; 0x06
    298c:	01 97       	sbiw	r24, 0x01	; 1
    298e:	9e 83       	std	Y+6, r25	; 0x06
    2990:	8d 83       	std	Y+5, r24	; 0x05
    2992:	21 96       	adiw	r28, 0x01	; 1
    2994:	af ad       	ldd	r26, Y+63	; 0x3f
    2996:	21 97       	sbiw	r28, 0x01	; 1
    2998:	aa 23       	and	r26, r26
    299a:	91 f6       	brne	.-92     	; 0x2940 <Write_H+0x248>
DIO_u8WritePinVal(latch,0);
    299c:	83 e1       	ldi	r24, 0x13	; 19
    299e:	60 e0       	ldi	r22, 0x00	; 0
    29a0:	0e 94 cd 00 	call	0x19a	; 0x19a <DIO_u8WritePinVal>

cols(colc_H);
    29a4:	ce 01       	movw	r24, r28
    29a6:	8e 96       	adiw	r24, 0x2e	; 46
    29a8:	0e 94 77 15 	call	0x2aee	; 0x2aee <cols>
rows(rowc_H);
    29ac:	ce 01       	movw	r24, r28
    29ae:	c6 96       	adiw	r24, 0x36	; 54
    29b0:	0e 94 18 15 	call	0x2a30	; 0x2a30 <rows>
DIO_u8WritePinVal(latch,1);
    29b4:	83 e1       	ldi	r24, 0x13	; 19
    29b6:	61 e0       	ldi	r22, 0x01	; 1
    29b8:	0e 94 cd 00 	call	0x19a	; 0x19a <DIO_u8WritePinVal>
DELAY(0.001);
    29bc:	1a 82       	std	Y+2, r1	; 0x02
    29be:	19 82       	std	Y+1, r1	; 0x01
    29c0:	13 c0       	rjmp	.+38     	; 0x29e8 <Write_H+0x2f0>
    29c2:	88 e2       	ldi	r24, 0x28	; 40
    29c4:	9a e0       	ldi	r25, 0x0A	; 10
    29c6:	9c 83       	std	Y+4, r25	; 0x04
    29c8:	8b 83       	std	Y+3, r24	; 0x03
    29ca:	1f ae       	std	Y+63, r1	; 0x3f
    29cc:	8b 81       	ldd	r24, Y+3	; 0x03
    29ce:	9c 81       	ldd	r25, Y+4	; 0x04
    29d0:	00 97       	sbiw	r24, 0x00	; 0
    29d2:	11 f0       	breq	.+4      	; 0x29d8 <Write_H+0x2e0>
    29d4:	b1 e0       	ldi	r27, 0x01	; 1
    29d6:	bf af       	std	Y+63, r27	; 0x3f
    29d8:	8b 81       	ldd	r24, Y+3	; 0x03
    29da:	9c 81       	ldd	r25, Y+4	; 0x04
    29dc:	01 97       	sbiw	r24, 0x01	; 1
    29de:	9c 83       	std	Y+4, r25	; 0x04
    29e0:	8b 83       	std	Y+3, r24	; 0x03
    29e2:	ef ad       	ldd	r30, Y+63	; 0x3f
    29e4:	ee 23       	and	r30, r30
    29e6:	89 f7       	brne	.-30     	; 0x29ca <Write_H+0x2d2>
    29e8:	1e ae       	std	Y+62, r1	; 0x3e
    29ea:	89 81       	ldd	r24, Y+1	; 0x01
    29ec:	9a 81       	ldd	r25, Y+2	; 0x02
    29ee:	00 97       	sbiw	r24, 0x00	; 0
    29f0:	11 f0       	breq	.+4      	; 0x29f6 <Write_H+0x2fe>
    29f2:	f1 e0       	ldi	r31, 0x01	; 1
    29f4:	fe af       	std	Y+62, r31	; 0x3e
    29f6:	89 81       	ldd	r24, Y+1	; 0x01
    29f8:	9a 81       	ldd	r25, Y+2	; 0x02
    29fa:	01 97       	sbiw	r24, 0x01	; 1
    29fc:	9a 83       	std	Y+2, r25	; 0x02
    29fe:	89 83       	std	Y+1, r24	; 0x01
    2a00:	8e ad       	ldd	r24, Y+62	; 0x3e
    2a02:	88 23       	and	r24, r24
    2a04:	f1 f6       	brne	.-68     	; 0x29c2 <Write_H+0x2ca>
DIO_u8WritePinVal(latch,0);
    2a06:	83 e1       	ldi	r24, 0x13	; 19
    2a08:	60 e0       	ldi	r22, 0x00	; 0
    2a0a:	0e 94 cd 00 	call	0x19a	; 0x19a <DIO_u8WritePinVal>

x--;
    2a0e:	8d 85       	ldd	r24, Y+13	; 0x0d
    2a10:	81 50       	subi	r24, 0x01	; 1
    2a12:	8d 87       	std	Y+13, r24	; 0x0d
	u8 colc_H[]={0,0,0,0,0,0,0,1};
	u8 rowc_H[]={1,1,1,1,1,1,1,0};


	u8 x = 50 ;
			while(x)
    2a14:	8d 85       	ldd	r24, Y+13	; 0x0d
    2a16:	88 23       	and	r24, r24
    2a18:	09 f0       	breq	.+2      	; 0x2a1c <Write_H+0x324>
    2a1a:	42 cf       	rjmp	.-380    	; 0x28a0 <Write_H+0x1a8>
DELAY(0.001);
DIO_u8WritePinVal(latch,0);

x--;
			}
}
    2a1c:	ce 5a       	subi	r28, 0xAE	; 174
    2a1e:	df 4f       	sbci	r29, 0xFF	; 255
    2a20:	0f b6       	in	r0, 0x3f	; 63
    2a22:	f8 94       	cli
    2a24:	de bf       	out	0x3e, r29	; 62
    2a26:	0f be       	out	0x3f, r0	; 63
    2a28:	cd bf       	out	0x3d, r28	; 61
    2a2a:	cf 91       	pop	r28
    2a2c:	df 91       	pop	r29
    2a2e:	08 95       	ret

00002a30 <rows>:


void rows(u8 *PIN_NUM)
{
    2a30:	df 93       	push	r29
    2a32:	cf 93       	push	r28
    2a34:	cd b7       	in	r28, 0x3d	; 61
    2a36:	de b7       	in	r29, 0x3e	; 62
    2a38:	29 97       	sbiw	r28, 0x09	; 9
    2a3a:	0f b6       	in	r0, 0x3f	; 63
    2a3c:	f8 94       	cli
    2a3e:	de bf       	out	0x3e, r29	; 62
    2a40:	0f be       	out	0x3f, r0	; 63
    2a42:	cd bf       	out	0x3d, r28	; 61
    2a44:	9f 83       	std	Y+7, r25	; 0x07
    2a46:	8e 83       	std	Y+6, r24	; 0x06
	u8 i ;

	for(i=0 ;i<8;i++ )
    2a48:	1d 82       	std	Y+5, r1	; 0x05
    2a4a:	44 c0       	rjmp	.+136    	; 0x2ad4 <rows+0xa4>
	{
       if(PIN_NUM[i]==1)
    2a4c:	8d 81       	ldd	r24, Y+5	; 0x05
    2a4e:	28 2f       	mov	r18, r24
    2a50:	30 e0       	ldi	r19, 0x00	; 0
    2a52:	8e 81       	ldd	r24, Y+6	; 0x06
    2a54:	9f 81       	ldd	r25, Y+7	; 0x07
    2a56:	fc 01       	movw	r30, r24
    2a58:	e2 0f       	add	r30, r18
    2a5a:	f3 1f       	adc	r31, r19
    2a5c:	80 81       	ld	r24, Z
    2a5e:	81 30       	cpi	r24, 0x01	; 1
    2a60:	29 f4       	brne	.+10     	; 0x2a6c <rows+0x3c>
    	   DIO_u8WritePinVal(ds,0);
    2a62:	82 e1       	ldi	r24, 0x12	; 18
    2a64:	60 e0       	ldi	r22, 0x00	; 0
    2a66:	0e 94 cd 00 	call	0x19a	; 0x19a <DIO_u8WritePinVal>
    2a6a:	04 c0       	rjmp	.+8      	; 0x2a74 <rows+0x44>
       else
    	   DIO_u8WritePinVal(ds,1);
    2a6c:	82 e1       	ldi	r24, 0x12	; 18
    2a6e:	61 e0       	ldi	r22, 0x01	; 1
    2a70:	0e 94 cd 00 	call	0x19a	; 0x19a <DIO_u8WritePinVal>

       DIO_u8WritePinVal(clk,1);
    2a74:	81 e1       	ldi	r24, 0x11	; 17
    2a76:	61 e0       	ldi	r22, 0x01	; 1
    2a78:	0e 94 cd 00 	call	0x19a	; 0x19a <DIO_u8WritePinVal>
       	DELAY(0.01);
    2a7c:	1a 82       	std	Y+2, r1	; 0x02
    2a7e:	19 82       	std	Y+1, r1	; 0x01
    2a80:	13 c0       	rjmp	.+38     	; 0x2aa8 <rows+0x78>
    2a82:	88 e2       	ldi	r24, 0x28	; 40
    2a84:	9a e0       	ldi	r25, 0x0A	; 10
    2a86:	9c 83       	std	Y+4, r25	; 0x04
    2a88:	8b 83       	std	Y+3, r24	; 0x03
    2a8a:	19 86       	std	Y+9, r1	; 0x09
    2a8c:	8b 81       	ldd	r24, Y+3	; 0x03
    2a8e:	9c 81       	ldd	r25, Y+4	; 0x04
    2a90:	00 97       	sbiw	r24, 0x00	; 0
    2a92:	11 f0       	breq	.+4      	; 0x2a98 <rows+0x68>
    2a94:	81 e0       	ldi	r24, 0x01	; 1
    2a96:	89 87       	std	Y+9, r24	; 0x09
    2a98:	8b 81       	ldd	r24, Y+3	; 0x03
    2a9a:	9c 81       	ldd	r25, Y+4	; 0x04
    2a9c:	01 97       	sbiw	r24, 0x01	; 1
    2a9e:	9c 83       	std	Y+4, r25	; 0x04
    2aa0:	8b 83       	std	Y+3, r24	; 0x03
    2aa2:	89 85       	ldd	r24, Y+9	; 0x09
    2aa4:	88 23       	and	r24, r24
    2aa6:	89 f7       	brne	.-30     	; 0x2a8a <rows+0x5a>
    2aa8:	18 86       	std	Y+8, r1	; 0x08
    2aaa:	89 81       	ldd	r24, Y+1	; 0x01
    2aac:	9a 81       	ldd	r25, Y+2	; 0x02
    2aae:	00 97       	sbiw	r24, 0x00	; 0
    2ab0:	11 f0       	breq	.+4      	; 0x2ab6 <rows+0x86>
    2ab2:	81 e0       	ldi	r24, 0x01	; 1
    2ab4:	88 87       	std	Y+8, r24	; 0x08
    2ab6:	89 81       	ldd	r24, Y+1	; 0x01
    2ab8:	9a 81       	ldd	r25, Y+2	; 0x02
    2aba:	01 97       	sbiw	r24, 0x01	; 1
    2abc:	9a 83       	std	Y+2, r25	; 0x02
    2abe:	89 83       	std	Y+1, r24	; 0x01
    2ac0:	88 85       	ldd	r24, Y+8	; 0x08
    2ac2:	88 23       	and	r24, r24
    2ac4:	f1 f6       	brne	.-68     	; 0x2a82 <rows+0x52>

       	DIO_u8WritePinVal(clk,0);
    2ac6:	81 e1       	ldi	r24, 0x11	; 17
    2ac8:	60 e0       	ldi	r22, 0x00	; 0
    2aca:	0e 94 cd 00 	call	0x19a	; 0x19a <DIO_u8WritePinVal>

void rows(u8 *PIN_NUM)
{
	u8 i ;

	for(i=0 ;i<8;i++ )
    2ace:	8d 81       	ldd	r24, Y+5	; 0x05
    2ad0:	8f 5f       	subi	r24, 0xFF	; 255
    2ad2:	8d 83       	std	Y+5, r24	; 0x05
    2ad4:	8d 81       	ldd	r24, Y+5	; 0x05
    2ad6:	88 30       	cpi	r24, 0x08	; 8
    2ad8:	08 f4       	brcc	.+2      	; 0x2adc <rows+0xac>
    2ada:	b8 cf       	rjmp	.-144    	; 0x2a4c <rows+0x1c>

       	DIO_u8WritePinVal(clk,0);

	}

}
    2adc:	29 96       	adiw	r28, 0x09	; 9
    2ade:	0f b6       	in	r0, 0x3f	; 63
    2ae0:	f8 94       	cli
    2ae2:	de bf       	out	0x3e, r29	; 62
    2ae4:	0f be       	out	0x3f, r0	; 63
    2ae6:	cd bf       	out	0x3d, r28	; 61
    2ae8:	cf 91       	pop	r28
    2aea:	df 91       	pop	r29
    2aec:	08 95       	ret

00002aee <cols>:
void cols(u8 *PIN_NUM)
{
    2aee:	df 93       	push	r29
    2af0:	cf 93       	push	r28
    2af2:	cd b7       	in	r28, 0x3d	; 61
    2af4:	de b7       	in	r29, 0x3e	; 62
    2af6:	29 97       	sbiw	r28, 0x09	; 9
    2af8:	0f b6       	in	r0, 0x3f	; 63
    2afa:	f8 94       	cli
    2afc:	de bf       	out	0x3e, r29	; 62
    2afe:	0f be       	out	0x3f, r0	; 63
    2b00:	cd bf       	out	0x3d, r28	; 61
    2b02:	9f 83       	std	Y+7, r25	; 0x07
    2b04:	8e 83       	std	Y+6, r24	; 0x06
	u8 i ;
	for(i=0 ;i<8;i++ )
    2b06:	1d 82       	std	Y+5, r1	; 0x05
    2b08:	44 c0       	rjmp	.+136    	; 0x2b92 <cols+0xa4>
	{
       if(PIN_NUM[i]==1)
    2b0a:	8d 81       	ldd	r24, Y+5	; 0x05
    2b0c:	28 2f       	mov	r18, r24
    2b0e:	30 e0       	ldi	r19, 0x00	; 0
    2b10:	8e 81       	ldd	r24, Y+6	; 0x06
    2b12:	9f 81       	ldd	r25, Y+7	; 0x07
    2b14:	fc 01       	movw	r30, r24
    2b16:	e2 0f       	add	r30, r18
    2b18:	f3 1f       	adc	r31, r19
    2b1a:	80 81       	ld	r24, Z
    2b1c:	81 30       	cpi	r24, 0x01	; 1
    2b1e:	29 f4       	brne	.+10     	; 0x2b2a <cols+0x3c>
    	   DIO_u8WritePinVal(ds,1);
    2b20:	82 e1       	ldi	r24, 0x12	; 18
    2b22:	61 e0       	ldi	r22, 0x01	; 1
    2b24:	0e 94 cd 00 	call	0x19a	; 0x19a <DIO_u8WritePinVal>
    2b28:	04 c0       	rjmp	.+8      	; 0x2b32 <cols+0x44>
       else
    	   DIO_u8WritePinVal(ds,0);
    2b2a:	82 e1       	ldi	r24, 0x12	; 18
    2b2c:	60 e0       	ldi	r22, 0x00	; 0
    2b2e:	0e 94 cd 00 	call	0x19a	; 0x19a <DIO_u8WritePinVal>

       	DIO_u8WritePinVal(clk,1);
    2b32:	81 e1       	ldi	r24, 0x11	; 17
    2b34:	61 e0       	ldi	r22, 0x01	; 1
    2b36:	0e 94 cd 00 	call	0x19a	; 0x19a <DIO_u8WritePinVal>
       	DELAY(0.01);
    2b3a:	1a 82       	std	Y+2, r1	; 0x02
    2b3c:	19 82       	std	Y+1, r1	; 0x01
    2b3e:	13 c0       	rjmp	.+38     	; 0x2b66 <cols+0x78>
    2b40:	88 e2       	ldi	r24, 0x28	; 40
    2b42:	9a e0       	ldi	r25, 0x0A	; 10
    2b44:	9c 83       	std	Y+4, r25	; 0x04
    2b46:	8b 83       	std	Y+3, r24	; 0x03
    2b48:	19 86       	std	Y+9, r1	; 0x09
    2b4a:	8b 81       	ldd	r24, Y+3	; 0x03
    2b4c:	9c 81       	ldd	r25, Y+4	; 0x04
    2b4e:	00 97       	sbiw	r24, 0x00	; 0
    2b50:	11 f0       	breq	.+4      	; 0x2b56 <cols+0x68>
    2b52:	81 e0       	ldi	r24, 0x01	; 1
    2b54:	89 87       	std	Y+9, r24	; 0x09
    2b56:	8b 81       	ldd	r24, Y+3	; 0x03
    2b58:	9c 81       	ldd	r25, Y+4	; 0x04
    2b5a:	01 97       	sbiw	r24, 0x01	; 1
    2b5c:	9c 83       	std	Y+4, r25	; 0x04
    2b5e:	8b 83       	std	Y+3, r24	; 0x03
    2b60:	89 85       	ldd	r24, Y+9	; 0x09
    2b62:	88 23       	and	r24, r24
    2b64:	89 f7       	brne	.-30     	; 0x2b48 <cols+0x5a>
    2b66:	18 86       	std	Y+8, r1	; 0x08
    2b68:	89 81       	ldd	r24, Y+1	; 0x01
    2b6a:	9a 81       	ldd	r25, Y+2	; 0x02
    2b6c:	00 97       	sbiw	r24, 0x00	; 0
    2b6e:	11 f0       	breq	.+4      	; 0x2b74 <cols+0x86>
    2b70:	81 e0       	ldi	r24, 0x01	; 1
    2b72:	88 87       	std	Y+8, r24	; 0x08
    2b74:	89 81       	ldd	r24, Y+1	; 0x01
    2b76:	9a 81       	ldd	r25, Y+2	; 0x02
    2b78:	01 97       	sbiw	r24, 0x01	; 1
    2b7a:	9a 83       	std	Y+2, r25	; 0x02
    2b7c:	89 83       	std	Y+1, r24	; 0x01
    2b7e:	88 85       	ldd	r24, Y+8	; 0x08
    2b80:	88 23       	and	r24, r24
    2b82:	f1 f6       	brne	.-68     	; 0x2b40 <cols+0x52>

       	DIO_u8WritePinVal(clk,0);
    2b84:	81 e1       	ldi	r24, 0x11	; 17
    2b86:	60 e0       	ldi	r22, 0x00	; 0
    2b88:	0e 94 cd 00 	call	0x19a	; 0x19a <DIO_u8WritePinVal>

}
void cols(u8 *PIN_NUM)
{
	u8 i ;
	for(i=0 ;i<8;i++ )
    2b8c:	8d 81       	ldd	r24, Y+5	; 0x05
    2b8e:	8f 5f       	subi	r24, 0xFF	; 255
    2b90:	8d 83       	std	Y+5, r24	; 0x05
    2b92:	8d 81       	ldd	r24, Y+5	; 0x05
    2b94:	88 30       	cpi	r24, 0x08	; 8
    2b96:	08 f4       	brcc	.+2      	; 0x2b9a <cols+0xac>
    2b98:	b8 cf       	rjmp	.-144    	; 0x2b0a <cols+0x1c>
       	DELAY(0.01);

       	DIO_u8WritePinVal(clk,0);
	}

}
    2b9a:	29 96       	adiw	r28, 0x09	; 9
    2b9c:	0f b6       	in	r0, 0x3f	; 63
    2b9e:	f8 94       	cli
    2ba0:	de bf       	out	0x3e, r29	; 62
    2ba2:	0f be       	out	0x3f, r0	; 63
    2ba4:	cd bf       	out	0x3d, r28	; 61
    2ba6:	cf 91       	pop	r28
    2ba8:	df 91       	pop	r29
    2baa:	08 95       	ret

00002bac <_exit>:
    2bac:	f8 94       	cli

00002bae <__stop_program>:
    2bae:	ff cf       	rjmp	.-2      	; 0x2bae <__stop_program>
