
func_gen.elf:     file format elf32-avr

Sections:
Idx Name          Size      VMA       LMA       File off  Algn
  0 .text         00000ae6  00000000  00000000  00000094  2**1
                  CONTENTS, ALLOC, LOAD, READONLY, CODE
  1 .data         0000001c  00800060  00000ae6  00000b7a  2**0
                  CONTENTS, ALLOC, LOAD, DATA
  2 .bss          00000009  0080007c  0080007c  00000b96  2**0
                  ALLOC
  3 .stab         00001140  00000000  00000000  00000b98  2**2
                  CONTENTS, READONLY, DEBUGGING
  4 .stabstr      000008d7  00000000  00000000  00001cd8  2**0
                  CONTENTS, READONLY, DEBUGGING

Disassembly of section .text:

00000000 <__vectors>:
   0:	0c 94 2a 00 	jmp	0x54	; 0x54 <__ctors_end>
   4:	0c 94 47 00 	jmp	0x8e	; 0x8e <__bad_interrupt>
   8:	0c 94 47 00 	jmp	0x8e	; 0x8e <__bad_interrupt>
   c:	0c 94 47 00 	jmp	0x8e	; 0x8e <__bad_interrupt>
  10:	0c 94 47 00 	jmp	0x8e	; 0x8e <__bad_interrupt>
  14:	0c 94 47 00 	jmp	0x8e	; 0x8e <__bad_interrupt>
  18:	0c 94 47 00 	jmp	0x8e	; 0x8e <__bad_interrupt>
  1c:	0c 94 47 00 	jmp	0x8e	; 0x8e <__bad_interrupt>
  20:	0c 94 47 00 	jmp	0x8e	; 0x8e <__bad_interrupt>
  24:	0c 94 47 00 	jmp	0x8e	; 0x8e <__bad_interrupt>
  28:	0c 94 47 00 	jmp	0x8e	; 0x8e <__bad_interrupt>
  2c:	0c 94 e5 04 	jmp	0x9ca	; 0x9ca <__vector_11>
  30:	0c 94 47 00 	jmp	0x8e	; 0x8e <__bad_interrupt>
  34:	0c 94 47 00 	jmp	0x8e	; 0x8e <__bad_interrupt>
  38:	0c 94 47 00 	jmp	0x8e	; 0x8e <__bad_interrupt>
  3c:	0c 94 02 05 	jmp	0xa04	; 0xa04 <__vector_15>
  40:	0c 94 47 00 	jmp	0x8e	; 0x8e <__bad_interrupt>
  44:	0c 94 47 00 	jmp	0x8e	; 0x8e <__bad_interrupt>
  48:	0c 94 47 00 	jmp	0x8e	; 0x8e <__bad_interrupt>
  4c:	0c 94 47 00 	jmp	0x8e	; 0x8e <__bad_interrupt>
  50:	0c 94 47 00 	jmp	0x8e	; 0x8e <__bad_interrupt>

00000054 <__ctors_end>:
  54:	11 24       	eor	r1, r1
  56:	1f be       	out	0x3f, r1	; 63
  58:	cf e5       	ldi	r28, 0x5F	; 95
  5a:	d4 e0       	ldi	r29, 0x04	; 4
  5c:	de bf       	out	0x3e, r29	; 62
  5e:	cd bf       	out	0x3d, r28	; 61

00000060 <__do_copy_data>:
  60:	10 e0       	ldi	r17, 0x00	; 0
  62:	a0 e6       	ldi	r26, 0x60	; 96
  64:	b0 e0       	ldi	r27, 0x00	; 0
  66:	e6 ee       	ldi	r30, 0xE6	; 230
  68:	fa e0       	ldi	r31, 0x0A	; 10
  6a:	02 c0       	rjmp	.+4      	; 0x70 <.do_copy_data_start>

0000006c <.do_copy_data_loop>:
  6c:	05 90       	lpm	r0, Z+
  6e:	0d 92       	st	X+, r0

00000070 <.do_copy_data_start>:
  70:	ac 37       	cpi	r26, 0x7C	; 124
  72:	b1 07       	cpc	r27, r17
  74:	d9 f7       	brne	.-10     	; 0x6c <.do_copy_data_loop>

00000076 <__do_clear_bss>:
  76:	10 e0       	ldi	r17, 0x00	; 0
  78:	ac e7       	ldi	r26, 0x7C	; 124
  7a:	b0 e0       	ldi	r27, 0x00	; 0
  7c:	01 c0       	rjmp	.+2      	; 0x80 <.do_clear_bss_start>

0000007e <.do_clear_bss_loop>:
  7e:	1d 92       	st	X+, r1

00000080 <.do_clear_bss_start>:
  80:	a5 38       	cpi	r26, 0x85	; 133
  82:	b1 07       	cpc	r27, r17
  84:	e1 f7       	brne	.-8      	; 0x7e <.do_clear_bss_loop>
  86:	0e 94 1f 05 	call	0xa3e	; 0xa3e <main>
  8a:	0c 94 71 05 	jmp	0xae2	; 0xae2 <_exit>

0000008e <__bad_interrupt>:
  8e:	0c 94 00 00 	jmp	0	; 0x0 <__vectors>

00000092 <ADC_voidInit>:
#include "ADC_config.h"
#include "DIO-utilites.h"

static const u8 CHKERR[2]={error,ok};
extern void ADC_voidInit(void)
{
  92:	df 93       	push	r29
  94:	cf 93       	push	r28
  96:	cd b7       	in	r28, 0x3d	; 61
  98:	de b7       	in	r29, 0x3e	; 62
	ADC_ADMUX = ADC_ADMUX_VAL;
  9a:	e7 e2       	ldi	r30, 0x27	; 39
  9c:	f0 e0       	ldi	r31, 0x00	; 0
  9e:	80 e4       	ldi	r24, 0x40	; 64
  a0:	80 83       	st	Z, r24
	ADC_ADCSRA= ADC_ADCSRA_VAL ;
  a2:	e6 e2       	ldi	r30, 0x26	; 38
  a4:	f0 e0       	ldi	r31, 0x00	; 0
  a6:	10 82       	st	Z, r1
	ADC_ADCH=ADC_ADCH_VAL;
  a8:	e5 e2       	ldi	r30, 0x25	; 37
  aa:	f0 e0       	ldi	r31, 0x00	; 0
  ac:	10 82       	st	Z, r1
	ADC_ADCL=ADC_ADCL_VAL;
  ae:	e4 e2       	ldi	r30, 0x24	; 36
  b0:	f0 e0       	ldi	r31, 0x00	; 0
  b2:	10 82       	st	Z, r1
	ADC_SFIOR|=ADC_SFIOR_VAL  ;
  b4:	a0 e5       	ldi	r26, 0x50	; 80
  b6:	b0 e0       	ldi	r27, 0x00	; 0
  b8:	e0 e5       	ldi	r30, 0x50	; 80
  ba:	f0 e0       	ldi	r31, 0x00	; 0
  bc:	80 81       	ld	r24, Z
  be:	8c 93       	st	X, r24

}
  c0:	cf 91       	pop	r28
  c2:	df 91       	pop	r29
  c4:	08 95       	ret

000000c6 <ADC_voidEnable>:

extern void ADC_voidEnable(void)
{
  c6:	df 93       	push	r29
  c8:	cf 93       	push	r28
  ca:	cd b7       	in	r28, 0x3d	; 61
  cc:	de b7       	in	r29, 0x3e	; 62
	ADC_ADCSRA|=(1<<ADEN);
  ce:	a6 e2       	ldi	r26, 0x26	; 38
  d0:	b0 e0       	ldi	r27, 0x00	; 0
  d2:	e6 e2       	ldi	r30, 0x26	; 38
  d4:	f0 e0       	ldi	r31, 0x00	; 0
  d6:	80 81       	ld	r24, Z
  d8:	80 68       	ori	r24, 0x80	; 128
  da:	8c 93       	st	X, r24
}
  dc:	cf 91       	pop	r28
  de:	df 91       	pop	r29
  e0:	08 95       	ret

000000e2 <ADC_voidDisable>:

extern void ADC_voidDisable(void)
{
  e2:	df 93       	push	r29
  e4:	cf 93       	push	r28
  e6:	cd b7       	in	r28, 0x3d	; 61
  e8:	de b7       	in	r29, 0x3e	; 62
	ADC_ADCSRA&=~(1<<ADEN);
  ea:	a6 e2       	ldi	r26, 0x26	; 38
  ec:	b0 e0       	ldi	r27, 0x00	; 0
  ee:	e6 e2       	ldi	r30, 0x26	; 38
  f0:	f0 e0       	ldi	r31, 0x00	; 0
  f2:	80 81       	ld	r24, Z
  f4:	8f 77       	andi	r24, 0x7F	; 127
  f6:	8c 93       	st	X, r24
}
  f8:	cf 91       	pop	r28
  fa:	df 91       	pop	r29
  fc:	08 95       	ret

000000fe <ADC_u8ReadCh_SSht>:

extern u8 ADC_u8ReadCh_SSht(u8 Copy_ChIdx , u16 * Copy_PtrToVal)
{
  fe:	df 93       	push	r29
 100:	cf 93       	push	r28
 102:	00 d0       	rcall	.+0      	; 0x104 <ADC_u8ReadCh_SSht+0x6>
 104:	00 d0       	rcall	.+0      	; 0x106 <ADC_u8ReadCh_SSht+0x8>
 106:	0f 92       	push	r0
 108:	cd b7       	in	r28, 0x3d	; 61
 10a:	de b7       	in	r29, 0x3e	; 62
 10c:	89 83       	std	Y+1, r24	; 0x01
 10e:	7b 83       	std	Y+3, r23	; 0x03
 110:	6a 83       	std	Y+2, r22	; 0x02

	*Copy_PtrToVal=0 ;
 112:	ea 81       	ldd	r30, Y+2	; 0x02
 114:	fb 81       	ldd	r31, Y+3	; 0x03
 116:	11 82       	std	Z+1, r1	; 0x01
 118:	10 82       	st	Z, r1
	ADC_ADMUX&=0xE0 ;
 11a:	a7 e2       	ldi	r26, 0x27	; 39
 11c:	b0 e0       	ldi	r27, 0x00	; 0
 11e:	e7 e2       	ldi	r30, 0x27	; 39
 120:	f0 e0       	ldi	r31, 0x00	; 0
 122:	80 81       	ld	r24, Z
 124:	80 7e       	andi	r24, 0xE0	; 224
 126:	8c 93       	st	X, r24
	ADC_ADMUX|=(0x1F & Copy_ChIdx) ;
 128:	a7 e2       	ldi	r26, 0x27	; 39
 12a:	b0 e0       	ldi	r27, 0x00	; 0
 12c:	e7 e2       	ldi	r30, 0x27	; 39
 12e:	f0 e0       	ldi	r31, 0x00	; 0
 130:	80 81       	ld	r24, Z
 132:	98 2f       	mov	r25, r24
 134:	89 81       	ldd	r24, Y+1	; 0x01
 136:	8f 71       	andi	r24, 0x1F	; 31
 138:	89 2b       	or	r24, r25
 13a:	8c 93       	st	X, r24
	ADC_ADCSRA|=(1<<ADSC);
 13c:	a6 e2       	ldi	r26, 0x26	; 38
 13e:	b0 e0       	ldi	r27, 0x00	; 0
 140:	e6 e2       	ldi	r30, 0x26	; 38
 142:	f0 e0       	ldi	r31, 0x00	; 0
 144:	80 81       	ld	r24, Z
 146:	80 64       	ori	r24, 0x40	; 64
 148:	8c 93       	st	X, r24

	while(ADC_ADCSRA&(1<<ADSC)) ;
 14a:	e6 e2       	ldi	r30, 0x26	; 38
 14c:	f0 e0       	ldi	r31, 0x00	; 0
 14e:	80 81       	ld	r24, Z
 150:	88 2f       	mov	r24, r24
 152:	90 e0       	ldi	r25, 0x00	; 0
 154:	80 74       	andi	r24, 0x40	; 64
 156:	90 70       	andi	r25, 0x00	; 0
 158:	00 97       	sbiw	r24, 0x00	; 0
 15a:	b9 f7       	brne	.-18     	; 0x14a <ADC_u8ReadCh_SSht+0x4c>
switch 	(ADC_RES)
{
case ADC_LOWRES :
		if(ADC_ADLAR_INITVAL==0)
		{
		* Copy_PtrToVal = ADC_ADCL  ;
 15c:	e4 e2       	ldi	r30, 0x24	; 36
 15e:	f0 e0       	ldi	r31, 0x00	; 0
 160:	80 81       	ld	r24, Z
 162:	88 2f       	mov	r24, r24
 164:	90 e0       	ldi	r25, 0x00	; 0
 166:	ea 81       	ldd	r30, Y+2	; 0x02
 168:	fb 81       	ldd	r31, Y+3	; 0x03
 16a:	91 83       	std	Z+1, r25	; 0x01
 16c:	80 83       	st	Z, r24
		* Copy_PtrToVal >>=2  ;
 16e:	ea 81       	ldd	r30, Y+2	; 0x02
 170:	fb 81       	ldd	r31, Y+3	; 0x03
 172:	80 81       	ld	r24, Z
 174:	91 81       	ldd	r25, Z+1	; 0x01
 176:	96 95       	lsr	r25
 178:	87 95       	ror	r24
 17a:	96 95       	lsr	r25
 17c:	87 95       	ror	r24
 17e:	ea 81       	ldd	r30, Y+2	; 0x02
 180:	fb 81       	ldd	r31, Y+3	; 0x03
 182:	91 83       	std	Z+1, r25	; 0x01
 184:	80 83       	st	Z, r24
		* Copy_PtrToVal |=(ADC_ADCH<<6) ;
 186:	ea 81       	ldd	r30, Y+2	; 0x02
 188:	fb 81       	ldd	r31, Y+3	; 0x03
 18a:	20 81       	ld	r18, Z
 18c:	31 81       	ldd	r19, Z+1	; 0x01
 18e:	e5 e2       	ldi	r30, 0x25	; 37
 190:	f0 e0       	ldi	r31, 0x00	; 0
 192:	80 81       	ld	r24, Z
 194:	88 2f       	mov	r24, r24
 196:	90 e0       	ldi	r25, 0x00	; 0
 198:	00 24       	eor	r0, r0
 19a:	96 95       	lsr	r25
 19c:	87 95       	ror	r24
 19e:	07 94       	ror	r0
 1a0:	96 95       	lsr	r25
 1a2:	87 95       	ror	r24
 1a4:	07 94       	ror	r0
 1a6:	98 2f       	mov	r25, r24
 1a8:	80 2d       	mov	r24, r0
 1aa:	82 2b       	or	r24, r18
 1ac:	93 2b       	or	r25, r19
 1ae:	ea 81       	ldd	r30, Y+2	; 0x02
 1b0:	fb 81       	ldd	r31, Y+3	; 0x03
 1b2:	91 83       	std	Z+1, r25	; 0x01
 1b4:	80 83       	st	Z, r24
	break ;

default :
	break ;
}
return CHKERR[Copy_ChIdx < 8];
 1b6:	1d 82       	std	Y+5, r1	; 0x05
 1b8:	1c 82       	std	Y+4, r1	; 0x04
 1ba:	89 81       	ldd	r24, Y+1	; 0x01
 1bc:	88 30       	cpi	r24, 0x08	; 8
 1be:	20 f4       	brcc	.+8      	; 0x1c8 <ADC_u8ReadCh_SSht+0xca>
 1c0:	81 e0       	ldi	r24, 0x01	; 1
 1c2:	90 e0       	ldi	r25, 0x00	; 0
 1c4:	9d 83       	std	Y+5, r25	; 0x05
 1c6:	8c 83       	std	Y+4, r24	; 0x04
 1c8:	ec 81       	ldd	r30, Y+4	; 0x04
 1ca:	fd 81       	ldd	r31, Y+5	; 0x05
 1cc:	ee 59       	subi	r30, 0x9E	; 158
 1ce:	ff 4f       	sbci	r31, 0xFF	; 255
 1d0:	80 81       	ld	r24, Z
}
 1d2:	0f 90       	pop	r0
 1d4:	0f 90       	pop	r0
 1d6:	0f 90       	pop	r0
 1d8:	0f 90       	pop	r0
 1da:	0f 90       	pop	r0
 1dc:	cf 91       	pop	r28
 1de:	df 91       	pop	r29
 1e0:	08 95       	ret

000001e2 <ADC_u8ReadCh_MSht>:

extern u8 ADC_u8ReadCh_MSht(u8 Copy_ChIdx , u16 * Copy_PtrToVal)
{
 1e2:	df 93       	push	r29
 1e4:	cf 93       	push	r28
 1e6:	cd b7       	in	r28, 0x3d	; 61
 1e8:	de b7       	in	r29, 0x3e	; 62
 1ea:	2a 97       	sbiw	r28, 0x0a	; 10
 1ec:	0f b6       	in	r0, 0x3f	; 63
 1ee:	f8 94       	cli
 1f0:	de bf       	out	0x3e, r29	; 62
 1f2:	0f be       	out	0x3f, r0	; 63
 1f4:	cd bf       	out	0x3d, r28	; 61
 1f6:	8e 83       	std	Y+6, r24	; 0x06
 1f8:	78 87       	std	Y+8, r23	; 0x08
 1fa:	6f 83       	std	Y+7, r22	; 0x07

	u8 local_u8ount=0;
 1fc:	1d 82       	std	Y+5, r1	; 0x05
	u16 local_u16avg=0 ;
 1fe:	1c 82       	std	Y+4, r1	; 0x04
 200:	1b 82       	std	Y+3, r1	; 0x03
	u32 local_u32sum=0 ;
 202:	1a 82       	std	Y+2, r1	; 0x02
 204:	19 82       	std	Y+1, r1	; 0x01
	 * Copy_PtrToVal=0;
 206:	ef 81       	ldd	r30, Y+7	; 0x07
 208:	f8 85       	ldd	r31, Y+8	; 0x08
 20a:	11 82       	std	Z+1, r1	; 0x01
 20c:	10 82       	st	Z, r1
for(local_u8ount=0 ;local_u8ount<8;local_u8ount++)
 20e:	1d 82       	std	Y+5, r1	; 0x05
 210:	49 c0       	rjmp	.+146    	; 0x2a4 <ADC_u8ReadCh_MSht+0xc2>
{
	ADC_ADMUX|=(0x1F & Copy_ChIdx) ;
 212:	a7 e2       	ldi	r26, 0x27	; 39
 214:	b0 e0       	ldi	r27, 0x00	; 0
 216:	e7 e2       	ldi	r30, 0x27	; 39
 218:	f0 e0       	ldi	r31, 0x00	; 0
 21a:	80 81       	ld	r24, Z
 21c:	98 2f       	mov	r25, r24
 21e:	8e 81       	ldd	r24, Y+6	; 0x06
 220:	8f 71       	andi	r24, 0x1F	; 31
 222:	89 2b       	or	r24, r25
 224:	8c 93       	st	X, r24
	ADC_ADCSRA|=(1<<ADSC);
 226:	a6 e2       	ldi	r26, 0x26	; 38
 228:	b0 e0       	ldi	r27, 0x00	; 0
 22a:	e6 e2       	ldi	r30, 0x26	; 38
 22c:	f0 e0       	ldi	r31, 0x00	; 0
 22e:	80 81       	ld	r24, Z
 230:	80 64       	ori	r24, 0x40	; 64
 232:	8c 93       	st	X, r24

	while(ADC_ADCSRA&(1<<ADSC)) ;
 234:	e6 e2       	ldi	r30, 0x26	; 38
 236:	f0 e0       	ldi	r31, 0x00	; 0
 238:	80 81       	ld	r24, Z
 23a:	88 2f       	mov	r24, r24
 23c:	90 e0       	ldi	r25, 0x00	; 0
 23e:	80 74       	andi	r24, 0x40	; 64
 240:	90 70       	andi	r25, 0x00	; 0
 242:	00 97       	sbiw	r24, 0x00	; 0
 244:	b9 f7       	brne	.-18     	; 0x234 <ADC_u8ReadCh_MSht+0x52>
switch 	(ADC_RES)
{
case ADC_LOWRES :
		if(ADC_ADLAR_INITVAL==0)
		{
			local_u16avg = ADC_ADCL  ;
 246:	e4 e2       	ldi	r30, 0x24	; 36
 248:	f0 e0       	ldi	r31, 0x00	; 0
 24a:	80 81       	ld	r24, Z
 24c:	88 2f       	mov	r24, r24
 24e:	90 e0       	ldi	r25, 0x00	; 0
 250:	9c 83       	std	Y+4, r25	; 0x04
 252:	8b 83       	std	Y+3, r24	; 0x03
			local_u16avg >>=2  ;
 254:	8b 81       	ldd	r24, Y+3	; 0x03
 256:	9c 81       	ldd	r25, Y+4	; 0x04
 258:	96 95       	lsr	r25
 25a:	87 95       	ror	r24
 25c:	96 95       	lsr	r25
 25e:	87 95       	ror	r24
 260:	9c 83       	std	Y+4, r25	; 0x04
 262:	8b 83       	std	Y+3, r24	; 0x03
			local_u16avg |=(ADC_ADCH<<6) ;
 264:	e5 e2       	ldi	r30, 0x25	; 37
 266:	f0 e0       	ldi	r31, 0x00	; 0
 268:	80 81       	ld	r24, Z
 26a:	88 2f       	mov	r24, r24
 26c:	90 e0       	ldi	r25, 0x00	; 0
 26e:	00 24       	eor	r0, r0
 270:	96 95       	lsr	r25
 272:	87 95       	ror	r24
 274:	07 94       	ror	r0
 276:	96 95       	lsr	r25
 278:	87 95       	ror	r24
 27a:	07 94       	ror	r0
 27c:	98 2f       	mov	r25, r24
 27e:	80 2d       	mov	r24, r0
 280:	9c 01       	movw	r18, r24
 282:	8b 81       	ldd	r24, Y+3	; 0x03
 284:	9c 81       	ldd	r25, Y+4	; 0x04
 286:	82 2b       	or	r24, r18
 288:	93 2b       	or	r25, r19
 28a:	9c 83       	std	Y+4, r25	; 0x04
 28c:	8b 83       	std	Y+3, r24	; 0x03
	break ;

default :
	break ;
}
	local_u32sum+=local_u16avg ;
 28e:	29 81       	ldd	r18, Y+1	; 0x01
 290:	3a 81       	ldd	r19, Y+2	; 0x02
 292:	8b 81       	ldd	r24, Y+3	; 0x03
 294:	9c 81       	ldd	r25, Y+4	; 0x04
 296:	82 0f       	add	r24, r18
 298:	93 1f       	adc	r25, r19
 29a:	9a 83       	std	Y+2, r25	; 0x02
 29c:	89 83       	std	Y+1, r24	; 0x01

	u8 local_u8ount=0;
	u16 local_u16avg=0 ;
	u32 local_u32sum=0 ;
	 * Copy_PtrToVal=0;
for(local_u8ount=0 ;local_u8ount<8;local_u8ount++)
 29e:	8d 81       	ldd	r24, Y+5	; 0x05
 2a0:	8f 5f       	subi	r24, 0xFF	; 255
 2a2:	8d 83       	std	Y+5, r24	; 0x05
 2a4:	8d 81       	ldd	r24, Y+5	; 0x05
 2a6:	88 30       	cpi	r24, 0x08	; 8
 2a8:	08 f4       	brcc	.+2      	; 0x2ac <ADC_u8ReadCh_MSht+0xca>
 2aa:	b3 cf       	rjmp	.-154    	; 0x212 <ADC_u8ReadCh_MSht+0x30>
default :
	break ;
}
	local_u32sum+=local_u16avg ;
}
* Copy_PtrToVal =  local_u32sum /8 ;
 2ac:	89 81       	ldd	r24, Y+1	; 0x01
 2ae:	9a 81       	ldd	r25, Y+2	; 0x02
 2b0:	96 95       	lsr	r25
 2b2:	87 95       	ror	r24
 2b4:	96 95       	lsr	r25
 2b6:	87 95       	ror	r24
 2b8:	96 95       	lsr	r25
 2ba:	87 95       	ror	r24
 2bc:	ef 81       	ldd	r30, Y+7	; 0x07
 2be:	f8 85       	ldd	r31, Y+8	; 0x08
 2c0:	91 83       	std	Z+1, r25	; 0x01
 2c2:	80 83       	st	Z, r24
return CHKERR[Copy_ChIdx < 8];
 2c4:	1a 86       	std	Y+10, r1	; 0x0a
 2c6:	19 86       	std	Y+9, r1	; 0x09
 2c8:	8e 81       	ldd	r24, Y+6	; 0x06
 2ca:	88 30       	cpi	r24, 0x08	; 8
 2cc:	20 f4       	brcc	.+8      	; 0x2d6 <ADC_u8ReadCh_MSht+0xf4>
 2ce:	81 e0       	ldi	r24, 0x01	; 1
 2d0:	90 e0       	ldi	r25, 0x00	; 0
 2d2:	9a 87       	std	Y+10, r25	; 0x0a
 2d4:	89 87       	std	Y+9, r24	; 0x09
 2d6:	e9 85       	ldd	r30, Y+9	; 0x09
 2d8:	fa 85       	ldd	r31, Y+10	; 0x0a
 2da:	ee 59       	subi	r30, 0x9E	; 158
 2dc:	ff 4f       	sbci	r31, 0xFF	; 255
 2de:	80 81       	ld	r24, Z
}
 2e0:	2a 96       	adiw	r28, 0x0a	; 10
 2e2:	0f b6       	in	r0, 0x3f	; 63
 2e4:	f8 94       	cli
 2e6:	de bf       	out	0x3e, r29	; 62
 2e8:	0f be       	out	0x3f, r0	; 63
 2ea:	cd bf       	out	0x3d, r28	; 61
 2ec:	cf 91       	pop	r28
 2ee:	df 91       	pop	r29
 2f0:	08 95       	ret

000002f2 <ADC_u8ReadGp>:

extern u8 ADC_u8ReadGp( u8 * Copy_IdxArr, u16 * Copy_PtrToVal)
{
 2f2:	df 93       	push	r29
 2f4:	cf 93       	push	r28
 2f6:	cd b7       	in	r28, 0x3d	; 61
 2f8:	de b7       	in	r29, 0x3e	; 62
 2fa:	27 97       	sbiw	r28, 0x07	; 7
 2fc:	0f b6       	in	r0, 0x3f	; 63
 2fe:	f8 94       	cli
 300:	de bf       	out	0x3e, r29	; 62
 302:	0f be       	out	0x3f, r0	; 63
 304:	cd bf       	out	0x3d, r28	; 61
 306:	9b 83       	std	Y+3, r25	; 0x03
 308:	8a 83       	std	Y+2, r24	; 0x02
 30a:	7d 83       	std	Y+5, r23	; 0x05
 30c:	6c 83       	std	Y+4, r22	; 0x04
	u8 local_u8count ;
	 * Copy_PtrToVal=0;
 30e:	ec 81       	ldd	r30, Y+4	; 0x04
 310:	fd 81       	ldd	r31, Y+5	; 0x05
 312:	11 82       	std	Z+1, r1	; 0x01
 314:	10 82       	st	Z, r1

for(local_u8count=0;local_u8count<4;local_u8count++)
 316:	19 82       	std	Y+1, r1	; 0x01
 318:	52 c0       	rjmp	.+164    	; 0x3be <ADC_u8ReadGp+0xcc>
{
		ADC_ADMUX|=(0x1F & Copy_IdxArr[local_u8count]) ;
 31a:	a7 e2       	ldi	r26, 0x27	; 39
 31c:	b0 e0       	ldi	r27, 0x00	; 0
 31e:	e7 e2       	ldi	r30, 0x27	; 39
 320:	f0 e0       	ldi	r31, 0x00	; 0
 322:	80 81       	ld	r24, Z
 324:	48 2f       	mov	r20, r24
 326:	89 81       	ldd	r24, Y+1	; 0x01
 328:	28 2f       	mov	r18, r24
 32a:	30 e0       	ldi	r19, 0x00	; 0
 32c:	8a 81       	ldd	r24, Y+2	; 0x02
 32e:	9b 81       	ldd	r25, Y+3	; 0x03
 330:	fc 01       	movw	r30, r24
 332:	e2 0f       	add	r30, r18
 334:	f3 1f       	adc	r31, r19
 336:	80 81       	ld	r24, Z
 338:	8f 71       	andi	r24, 0x1F	; 31
 33a:	84 2b       	or	r24, r20
 33c:	8c 93       	st	X, r24
		ADC_ADCSRA|=(1<<ADSC);
 33e:	a6 e2       	ldi	r26, 0x26	; 38
 340:	b0 e0       	ldi	r27, 0x00	; 0
 342:	e6 e2       	ldi	r30, 0x26	; 38
 344:	f0 e0       	ldi	r31, 0x00	; 0
 346:	80 81       	ld	r24, Z
 348:	80 64       	ori	r24, 0x40	; 64
 34a:	8c 93       	st	X, r24

		while(ADC_ADCSRA&(1<<ADSC)) ;
 34c:	e6 e2       	ldi	r30, 0x26	; 38
 34e:	f0 e0       	ldi	r31, 0x00	; 0
 350:	80 81       	ld	r24, Z
 352:	88 2f       	mov	r24, r24
 354:	90 e0       	ldi	r25, 0x00	; 0
 356:	80 74       	andi	r24, 0x40	; 64
 358:	90 70       	andi	r25, 0x00	; 0
 35a:	00 97       	sbiw	r24, 0x00	; 0
 35c:	b9 f7       	brne	.-18     	; 0x34c <ADC_u8ReadGp+0x5a>
	switch 	(ADC_RES)
	{
	case ADC_LOWRES :
			if(ADC_ADLAR_INITVAL==0)
			{
				* Copy_PtrToVal = ADC_ADCL  ;
 35e:	e4 e2       	ldi	r30, 0x24	; 36
 360:	f0 e0       	ldi	r31, 0x00	; 0
 362:	80 81       	ld	r24, Z
 364:	88 2f       	mov	r24, r24
 366:	90 e0       	ldi	r25, 0x00	; 0
 368:	ec 81       	ldd	r30, Y+4	; 0x04
 36a:	fd 81       	ldd	r31, Y+5	; 0x05
 36c:	91 83       	std	Z+1, r25	; 0x01
 36e:	80 83       	st	Z, r24
				* Copy_PtrToVal >>=2  ;
 370:	ec 81       	ldd	r30, Y+4	; 0x04
 372:	fd 81       	ldd	r31, Y+5	; 0x05
 374:	80 81       	ld	r24, Z
 376:	91 81       	ldd	r25, Z+1	; 0x01
 378:	96 95       	lsr	r25
 37a:	87 95       	ror	r24
 37c:	96 95       	lsr	r25
 37e:	87 95       	ror	r24
 380:	ec 81       	ldd	r30, Y+4	; 0x04
 382:	fd 81       	ldd	r31, Y+5	; 0x05
 384:	91 83       	std	Z+1, r25	; 0x01
 386:	80 83       	st	Z, r24
				* Copy_PtrToVal |=(ADC_ADCH<<6) ;
 388:	ec 81       	ldd	r30, Y+4	; 0x04
 38a:	fd 81       	ldd	r31, Y+5	; 0x05
 38c:	20 81       	ld	r18, Z
 38e:	31 81       	ldd	r19, Z+1	; 0x01
 390:	e5 e2       	ldi	r30, 0x25	; 37
 392:	f0 e0       	ldi	r31, 0x00	; 0
 394:	80 81       	ld	r24, Z
 396:	88 2f       	mov	r24, r24
 398:	90 e0       	ldi	r25, 0x00	; 0
 39a:	00 24       	eor	r0, r0
 39c:	96 95       	lsr	r25
 39e:	87 95       	ror	r24
 3a0:	07 94       	ror	r0
 3a2:	96 95       	lsr	r25
 3a4:	87 95       	ror	r24
 3a6:	07 94       	ror	r0
 3a8:	98 2f       	mov	r25, r24
 3aa:	80 2d       	mov	r24, r0
 3ac:	82 2b       	or	r24, r18
 3ae:	93 2b       	or	r25, r19
 3b0:	ec 81       	ldd	r30, Y+4	; 0x04
 3b2:	fd 81       	ldd	r31, Y+5	; 0x05
 3b4:	91 83       	std	Z+1, r25	; 0x01
 3b6:	80 83       	st	Z, r24
extern u8 ADC_u8ReadGp( u8 * Copy_IdxArr, u16 * Copy_PtrToVal)
{
	u8 local_u8count ;
	 * Copy_PtrToVal=0;

for(local_u8count=0;local_u8count<4;local_u8count++)
 3b8:	89 81       	ldd	r24, Y+1	; 0x01
 3ba:	8f 5f       	subi	r24, 0xFF	; 255
 3bc:	89 83       	std	Y+1, r24	; 0x01
 3be:	89 81       	ldd	r24, Y+1	; 0x01
 3c0:	84 30       	cpi	r24, 0x04	; 4
 3c2:	08 f4       	brcc	.+2      	; 0x3c6 <ADC_u8ReadGp+0xd4>
 3c4:	aa cf       	rjmp	.-172    	; 0x31a <ADC_u8ReadGp+0x28>

	default :
		break ;
	}
}
	return CHKERR[Copy_IdxArr[0] < 8 && Copy_IdxArr[1] < 8 && Copy_IdxArr[2] < 8 && Copy_IdxArr[3] < 8 ];
 3c6:	ea 81       	ldd	r30, Y+2	; 0x02
 3c8:	fb 81       	ldd	r31, Y+3	; 0x03
 3ca:	80 81       	ld	r24, Z
 3cc:	88 30       	cpi	r24, 0x08	; 8
 3ce:	d0 f4       	brcc	.+52     	; 0x404 <ADC_u8ReadGp+0x112>
 3d0:	8a 81       	ldd	r24, Y+2	; 0x02
 3d2:	9b 81       	ldd	r25, Y+3	; 0x03
 3d4:	fc 01       	movw	r30, r24
 3d6:	31 96       	adiw	r30, 0x01	; 1
 3d8:	80 81       	ld	r24, Z
 3da:	88 30       	cpi	r24, 0x08	; 8
 3dc:	98 f4       	brcc	.+38     	; 0x404 <ADC_u8ReadGp+0x112>
 3de:	8a 81       	ldd	r24, Y+2	; 0x02
 3e0:	9b 81       	ldd	r25, Y+3	; 0x03
 3e2:	fc 01       	movw	r30, r24
 3e4:	32 96       	adiw	r30, 0x02	; 2
 3e6:	80 81       	ld	r24, Z
 3e8:	88 30       	cpi	r24, 0x08	; 8
 3ea:	60 f4       	brcc	.+24     	; 0x404 <ADC_u8ReadGp+0x112>
 3ec:	8a 81       	ldd	r24, Y+2	; 0x02
 3ee:	9b 81       	ldd	r25, Y+3	; 0x03
 3f0:	fc 01       	movw	r30, r24
 3f2:	33 96       	adiw	r30, 0x03	; 3
 3f4:	80 81       	ld	r24, Z
 3f6:	88 30       	cpi	r24, 0x08	; 8
 3f8:	28 f4       	brcc	.+10     	; 0x404 <ADC_u8ReadGp+0x112>
 3fa:	81 e0       	ldi	r24, 0x01	; 1
 3fc:	90 e0       	ldi	r25, 0x00	; 0
 3fe:	9f 83       	std	Y+7, r25	; 0x07
 400:	8e 83       	std	Y+6, r24	; 0x06
 402:	02 c0       	rjmp	.+4      	; 0x408 <ADC_u8ReadGp+0x116>
 404:	1f 82       	std	Y+7, r1	; 0x07
 406:	1e 82       	std	Y+6, r1	; 0x06
 408:	8e 81       	ldd	r24, Y+6	; 0x06
 40a:	9f 81       	ldd	r25, Y+7	; 0x07
 40c:	fc 01       	movw	r30, r24
 40e:	ee 59       	subi	r30, 0x9E	; 158
 410:	ff 4f       	sbci	r31, 0xFF	; 255
 412:	80 81       	ld	r24, Z
}
 414:	27 96       	adiw	r28, 0x07	; 7
 416:	0f b6       	in	r0, 0x3f	; 63
 418:	f8 94       	cli
 41a:	de bf       	out	0x3e, r29	; 62
 41c:	0f be       	out	0x3f, r0	; 63
 41e:	cd bf       	out	0x3d, r28	; 61
 420:	cf 91       	pop	r28
 422:	df 91       	pop	r29
 424:	08 95       	ret

00000426 <DIO_voidInit>:
static  u8 * const DIO_u8Ddrs[]={DIO_u8DDRA ,DIO_u8DDRB, DIO_u8DDRC , DIO_u8DDRD} ;
static  u8 *const DIO_u8Pins[]={DIO_u8PORTA ,DIO_u8PORTB, DIO_u8PORTC , DIO_u8PORTD} ;

static  u8 DIO_Check[]={ok,error};
extern void DIO_voidInit(void)
{
 426:	df 93       	push	r29
 428:	cf 93       	push	r28
 42a:	cd b7       	in	r28, 0x3d	; 61
 42c:	de b7       	in	r29, 0x3e	; 62
  /*Comment!:initializing Ports Directions */
*DIO_u8Ddrs[DIO_u8PORT0]=DIO_u8PORTA_DIR;
 42e:	e0 91 6c 00 	lds	r30, 0x006C
 432:	f0 91 6d 00 	lds	r31, 0x006D
 436:	10 82       	st	Z, r1
*DIO_u8Ddrs[DIO_u8PORT1]=DIO_u8PORTB_DIR;
 438:	e0 91 6e 00 	lds	r30, 0x006E
 43c:	f0 91 6f 00 	lds	r31, 0x006F
 440:	10 82       	st	Z, r1
*DIO_u8Ddrs[DIO_u8PORT2]=DIO_u8PORTC_DIR;
 442:	e0 91 70 00 	lds	r30, 0x0070
 446:	f0 91 71 00 	lds	r31, 0x0071
 44a:	10 82       	st	Z, r1
*DIO_u8Ddrs[DIO_u8PORT3]=DIO_u8PORTD_DIR;
 44c:	e0 91 72 00 	lds	r30, 0x0072
 450:	f0 91 73 00 	lds	r31, 0x0073
 454:	80 e1       	ldi	r24, 0x10	; 16
 456:	80 83       	st	Z, r24
/*Comment!:initializing Ports Value  */
*DIO_u8Ports[DIO_u8PORT0] =(DIO_u8PORTA_DIR & DIO_u8PORTA_VAL) | ((~DIO_u8PORTA_DIR)&*DIO_u8Ports[DIO_u8PORT0] );
 458:	a0 91 64 00 	lds	r26, 0x0064
 45c:	b0 91 65 00 	lds	r27, 0x0065
 460:	e0 91 64 00 	lds	r30, 0x0064
 464:	f0 91 65 00 	lds	r31, 0x0065
 468:	80 81       	ld	r24, Z
 46a:	8c 93       	st	X, r24
*DIO_u8Ports[DIO_u8PORT1] =(DIO_u8PORTB_DIR & DIO_u8PORTB_VAL)| ((~DIO_u8PORTB_DIR)&*DIO_u8Ports[DIO_u8PORT1] );
 46c:	a0 91 66 00 	lds	r26, 0x0066
 470:	b0 91 67 00 	lds	r27, 0x0067
 474:	e0 91 66 00 	lds	r30, 0x0066
 478:	f0 91 67 00 	lds	r31, 0x0067
 47c:	80 81       	ld	r24, Z
 47e:	8c 93       	st	X, r24
*DIO_u8Ports[DIO_u8PORT2] =(DIO_u8PORTC_DIR & DIO_u8PORTC_VAL)| ((~DIO_u8PORTC_DIR)&*DIO_u8Ports[DIO_u8PORT2] );
 480:	a0 91 68 00 	lds	r26, 0x0068
 484:	b0 91 69 00 	lds	r27, 0x0069
 488:	e0 91 68 00 	lds	r30, 0x0068
 48c:	f0 91 69 00 	lds	r31, 0x0069
 490:	80 81       	ld	r24, Z
 492:	8c 93       	st	X, r24
*DIO_u8Ports[DIO_u8PORT3] =(DIO_u8PORTD_DIR & DIO_u8PORTD_VAL)| ((~DIO_u8PORTD_DIR)&*DIO_u8Ports[DIO_u8PORT3] );
 494:	a0 91 6a 00 	lds	r26, 0x006A
 498:	b0 91 6b 00 	lds	r27, 0x006B
 49c:	e0 91 6a 00 	lds	r30, 0x006A
 4a0:	f0 91 6b 00 	lds	r31, 0x006B
 4a4:	80 81       	ld	r24, Z
 4a6:	8f 7e       	andi	r24, 0xEF	; 239
 4a8:	8c 93       	st	X, r24

}
 4aa:	cf 91       	pop	r28
 4ac:	df 91       	pop	r29
 4ae:	08 95       	ret

000004b0 <DIO_u8ReadPinVal>:


extern u8 DIO_u8ReadPinVal(u8 Copy_u8PinIdx,u8* Copy_u8PtrToval)
{
 4b0:	df 93       	push	r29
 4b2:	cf 93       	push	r28
 4b4:	cd b7       	in	r28, 0x3d	; 61
 4b6:	de b7       	in	r29, 0x3e	; 62
 4b8:	27 97       	sbiw	r28, 0x07	; 7
 4ba:	0f b6       	in	r0, 0x3f	; 63
 4bc:	f8 94       	cli
 4be:	de bf       	out	0x3e, r29	; 62
 4c0:	0f be       	out	0x3f, r0	; 63
 4c2:	cd bf       	out	0x3d, r28	; 61
 4c4:	8b 83       	std	Y+3, r24	; 0x03
 4c6:	7d 83       	std	Y+5, r23	; 0x05
 4c8:	6c 83       	std	Y+4, r22	; 0x04
	 if(Copy_u8PinIdx<DIO_u8PINMAXIDX)
 4ca:	8b 81       	ldd	r24, Y+3	; 0x03
 4cc:	8f 31       	cpi	r24, 0x1F	; 31
 4ce:	80 f5       	brcc	.+96     	; 0x530 <DIO_u8ReadPinVal+0x80>
	    {
	     //u8 Local_u8CheckPinState=ok ;
		u8 local_u8CheckPinPlace=Copy_u8PinIdx/PINNUMS ;
 4d0:	8b 81       	ldd	r24, Y+3	; 0x03
 4d2:	86 95       	lsr	r24
 4d4:	86 95       	lsr	r24
 4d6:	86 95       	lsr	r24
 4d8:	8a 83       	std	Y+2, r24	; 0x02
		u8 local_u8MapPin=Copy_u8PinIdx%PINNUMS ;
 4da:	8b 81       	ldd	r24, Y+3	; 0x03
 4dc:	87 70       	andi	r24, 0x07	; 7
 4de:	89 83       	std	Y+1, r24	; 0x01

		* Copy_u8PtrToval=get_bit(*DIO_u8Pins[local_u8CheckPinPlace],local_u8MapPin);
 4e0:	8a 81       	ldd	r24, Y+2	; 0x02
 4e2:	88 2f       	mov	r24, r24
 4e4:	90 e0       	ldi	r25, 0x00	; 0
 4e6:	88 0f       	add	r24, r24
 4e8:	99 1f       	adc	r25, r25
 4ea:	fc 01       	movw	r30, r24
 4ec:	ec 58       	subi	r30, 0x8C	; 140
 4ee:	ff 4f       	sbci	r31, 0xFF	; 255
 4f0:	01 90       	ld	r0, Z+
 4f2:	f0 81       	ld	r31, Z
 4f4:	e0 2d       	mov	r30, r0
 4f6:	80 81       	ld	r24, Z
 4f8:	48 2f       	mov	r20, r24
 4fa:	50 e0       	ldi	r21, 0x00	; 0
 4fc:	89 81       	ldd	r24, Y+1	; 0x01
 4fe:	28 2f       	mov	r18, r24
 500:	30 e0       	ldi	r19, 0x00	; 0
 502:	81 e0       	ldi	r24, 0x01	; 1
 504:	90 e0       	ldi	r25, 0x00	; 0
 506:	02 c0       	rjmp	.+4      	; 0x50c <DIO_u8ReadPinVal+0x5c>
 508:	88 0f       	add	r24, r24
 50a:	99 1f       	adc	r25, r25
 50c:	2a 95       	dec	r18
 50e:	e2 f7       	brpl	.-8      	; 0x508 <DIO_u8ReadPinVal+0x58>
 510:	9a 01       	movw	r18, r20
 512:	28 23       	and	r18, r24
 514:	39 23       	and	r19, r25
 516:	89 81       	ldd	r24, Y+1	; 0x01
 518:	88 2f       	mov	r24, r24
 51a:	90 e0       	ldi	r25, 0x00	; 0
 51c:	a9 01       	movw	r20, r18
 51e:	02 c0       	rjmp	.+4      	; 0x524 <DIO_u8ReadPinVal+0x74>
 520:	55 95       	asr	r21
 522:	47 95       	ror	r20
 524:	8a 95       	dec	r24
 526:	e2 f7       	brpl	.-8      	; 0x520 <DIO_u8ReadPinVal+0x70>
 528:	ca 01       	movw	r24, r20
 52a:	ec 81       	ldd	r30, Y+4	; 0x04
 52c:	fd 81       	ldd	r31, Y+5	; 0x05
 52e:	80 83       	st	Z, r24
    }
    else
    {

    }
return  DIO_Check[Copy_u8PinIdx>DIO_u8PINMAXIDX] ;
 530:	1f 82       	std	Y+7, r1	; 0x07
 532:	1e 82       	std	Y+6, r1	; 0x06
 534:	8b 81       	ldd	r24, Y+3	; 0x03
 536:	80 32       	cpi	r24, 0x20	; 32
 538:	20 f0       	brcs	.+8      	; 0x542 <DIO_u8ReadPinVal+0x92>
 53a:	81 e0       	ldi	r24, 0x01	; 1
 53c:	90 e0       	ldi	r25, 0x00	; 0
 53e:	9f 83       	std	Y+7, r25	; 0x07
 540:	8e 83       	std	Y+6, r24	; 0x06
 542:	ee 81       	ldd	r30, Y+6	; 0x06
 544:	ff 81       	ldd	r31, Y+7	; 0x07
 546:	e0 5a       	subi	r30, 0xA0	; 160
 548:	ff 4f       	sbci	r31, 0xFF	; 255
 54a:	80 81       	ld	r24, Z
}
 54c:	27 96       	adiw	r28, 0x07	; 7
 54e:	0f b6       	in	r0, 0x3f	; 63
 550:	f8 94       	cli
 552:	de bf       	out	0x3e, r29	; 62
 554:	0f be       	out	0x3f, r0	; 63
 556:	cd bf       	out	0x3d, r28	; 61
 558:	cf 91       	pop	r28
 55a:	df 91       	pop	r29
 55c:	08 95       	ret

0000055e <DIO_u8WritePinVal>:

extern u8 DIO_u8WritePinVal(u8 Copy_u8PinIdx,u8 Copy_u8Pinval)
{
 55e:	df 93       	push	r29
 560:	cf 93       	push	r28
 562:	00 d0       	rcall	.+0      	; 0x564 <DIO_u8WritePinVal+0x6>
 564:	00 d0       	rcall	.+0      	; 0x566 <DIO_u8WritePinVal+0x8>
 566:	0f 92       	push	r0
 568:	cd b7       	in	r28, 0x3d	; 61
 56a:	de b7       	in	r29, 0x3e	; 62
 56c:	8c 83       	std	Y+4, r24	; 0x04
 56e:	6d 83       	std	Y+5, r22	; 0x05
	 u8 Local_u8CheckPinState=ok ;
 570:	81 e0       	ldi	r24, 0x01	; 1
 572:	8b 83       	std	Y+3, r24	; 0x03
     u8 local_u8CheckPinPlace=Copy_u8PinIdx/PINNUMS ;
 574:	8c 81       	ldd	r24, Y+4	; 0x04
 576:	86 95       	lsr	r24
 578:	86 95       	lsr	r24
 57a:	86 95       	lsr	r24
 57c:	8a 83       	std	Y+2, r24	; 0x02
	 u8 local_u8MapPin=Copy_u8PinIdx%PINNUMS ;
 57e:	8c 81       	ldd	r24, Y+4	; 0x04
 580:	87 70       	andi	r24, 0x07	; 7
 582:	89 83       	std	Y+1, r24	; 0x01

	    if(Copy_u8PinIdx>DIO_u8PINMAXIDX)
 584:	8c 81       	ldd	r24, Y+4	; 0x04
 586:	80 32       	cpi	r24, 0x20	; 32
 588:	10 f0       	brcs	.+4      	; 0x58e <DIO_u8WritePinVal+0x30>
	    {
	    	 Local_u8CheckPinState=error ;
 58a:	1b 82       	std	Y+3, r1	; 0x03
 58c:	33 c0       	rjmp	.+102    	; 0x5f4 <DIO_u8WritePinVal+0x96>
	    }
	    else
	    {
	    	assign_bit(*DIO_u8Ports[local_u8CheckPinPlace],local_u8MapPin,Copy_u8Pinval);
 58e:	8a 81       	ldd	r24, Y+2	; 0x02
 590:	88 2f       	mov	r24, r24
 592:	90 e0       	ldi	r25, 0x00	; 0
 594:	88 0f       	add	r24, r24
 596:	99 1f       	adc	r25, r25
 598:	fc 01       	movw	r30, r24
 59a:	ec 59       	subi	r30, 0x9C	; 156
 59c:	ff 4f       	sbci	r31, 0xFF	; 255
 59e:	a0 81       	ld	r26, Z
 5a0:	b1 81       	ldd	r27, Z+1	; 0x01
 5a2:	89 81       	ldd	r24, Y+1	; 0x01
 5a4:	28 2f       	mov	r18, r24
 5a6:	30 e0       	ldi	r19, 0x00	; 0
 5a8:	81 e0       	ldi	r24, 0x01	; 1
 5aa:	90 e0       	ldi	r25, 0x00	; 0
 5ac:	02 c0       	rjmp	.+4      	; 0x5b2 <DIO_u8WritePinVal+0x54>
 5ae:	88 0f       	add	r24, r24
 5b0:	99 1f       	adc	r25, r25
 5b2:	2a 95       	dec	r18
 5b4:	e2 f7       	brpl	.-8      	; 0x5ae <DIO_u8WritePinVal+0x50>
 5b6:	28 2f       	mov	r18, r24
 5b8:	20 95       	com	r18
 5ba:	8a 81       	ldd	r24, Y+2	; 0x02
 5bc:	88 2f       	mov	r24, r24
 5be:	90 e0       	ldi	r25, 0x00	; 0
 5c0:	88 0f       	add	r24, r24
 5c2:	99 1f       	adc	r25, r25
 5c4:	fc 01       	movw	r30, r24
 5c6:	ec 59       	subi	r30, 0x9C	; 156
 5c8:	ff 4f       	sbci	r31, 0xFF	; 255
 5ca:	01 90       	ld	r0, Z+
 5cc:	f0 81       	ld	r31, Z
 5ce:	e0 2d       	mov	r30, r0
 5d0:	80 81       	ld	r24, Z
 5d2:	42 2f       	mov	r20, r18
 5d4:	48 23       	and	r20, r24
 5d6:	8d 81       	ldd	r24, Y+5	; 0x05
 5d8:	28 2f       	mov	r18, r24
 5da:	30 e0       	ldi	r19, 0x00	; 0
 5dc:	89 81       	ldd	r24, Y+1	; 0x01
 5de:	88 2f       	mov	r24, r24
 5e0:	90 e0       	ldi	r25, 0x00	; 0
 5e2:	b9 01       	movw	r22, r18
 5e4:	02 c0       	rjmp	.+4      	; 0x5ea <DIO_u8WritePinVal+0x8c>
 5e6:	66 0f       	add	r22, r22
 5e8:	77 1f       	adc	r23, r23
 5ea:	8a 95       	dec	r24
 5ec:	e2 f7       	brpl	.-8      	; 0x5e6 <DIO_u8WritePinVal+0x88>
 5ee:	cb 01       	movw	r24, r22
 5f0:	84 2b       	or	r24, r20
 5f2:	8c 93       	st	X, r24

	    }

     return  Local_u8CheckPinState ;
 5f4:	8b 81       	ldd	r24, Y+3	; 0x03
}
 5f6:	0f 90       	pop	r0
 5f8:	0f 90       	pop	r0
 5fa:	0f 90       	pop	r0
 5fc:	0f 90       	pop	r0
 5fe:	0f 90       	pop	r0
 600:	cf 91       	pop	r28
 602:	df 91       	pop	r29
 604:	08 95       	ret

00000606 <DIO_u8ReadPortVal>:


extern u8 DIO_u8ReadPortVal(u8 Copy_u8PortIdx,u8* Copy_u8PtrToval)
{
 606:	df 93       	push	r29
 608:	cf 93       	push	r28
 60a:	00 d0       	rcall	.+0      	; 0x60c <DIO_u8ReadPortVal+0x6>
 60c:	00 d0       	rcall	.+0      	; 0x60e <DIO_u8ReadPortVal+0x8>
 60e:	cd b7       	in	r28, 0x3d	; 61
 610:	de b7       	in	r29, 0x3e	; 62
 612:	8a 83       	std	Y+2, r24	; 0x02
 614:	7c 83       	std	Y+4, r23	; 0x04
 616:	6b 83       	std	Y+3, r22	; 0x03
	u8 Local_u8CheckPortR=ok ;
 618:	81 e0       	ldi	r24, 0x01	; 1
 61a:	89 83       	std	Y+1, r24	; 0x01

	if(Copy_u8PortIdx<=DIO_u8PORTMAXIDX)
 61c:	8a 81       	ldd	r24, Y+2	; 0x02
 61e:	84 30       	cpi	r24, 0x04	; 4
 620:	80 f4       	brcc	.+32     	; 0x642 <DIO_u8ReadPortVal+0x3c>
	{

	* Copy_u8PtrToval=*DIO_u8Pins[Copy_u8PortIdx] ;
 622:	8a 81       	ldd	r24, Y+2	; 0x02
 624:	88 2f       	mov	r24, r24
 626:	90 e0       	ldi	r25, 0x00	; 0
 628:	88 0f       	add	r24, r24
 62a:	99 1f       	adc	r25, r25
 62c:	fc 01       	movw	r30, r24
 62e:	ec 58       	subi	r30, 0x8C	; 140
 630:	ff 4f       	sbci	r31, 0xFF	; 255
 632:	01 90       	ld	r0, Z+
 634:	f0 81       	ld	r31, Z
 636:	e0 2d       	mov	r30, r0
 638:	80 81       	ld	r24, Z
 63a:	eb 81       	ldd	r30, Y+3	; 0x03
 63c:	fc 81       	ldd	r31, Y+4	; 0x04
 63e:	80 83       	st	Z, r24
 640:	01 c0       	rjmp	.+2      	; 0x644 <DIO_u8ReadPortVal+0x3e>
	}
	else
	{
		Local_u8CheckPortR=error ;
 642:	19 82       	std	Y+1, r1	; 0x01
	}

	return Local_u8CheckPortR ;
 644:	89 81       	ldd	r24, Y+1	; 0x01
}
 646:	0f 90       	pop	r0
 648:	0f 90       	pop	r0
 64a:	0f 90       	pop	r0
 64c:	0f 90       	pop	r0
 64e:	cf 91       	pop	r28
 650:	df 91       	pop	r29
 652:	08 95       	ret

00000654 <DIO_u8WritePortVal>:

extern u8 DIO_u8WritePortVal(u8 Copy_u8PortIdx,u8 Copy_u8Portval)
{
 654:	df 93       	push	r29
 656:	cf 93       	push	r28
 658:	00 d0       	rcall	.+0      	; 0x65a <DIO_u8WritePortVal+0x6>
 65a:	0f 92       	push	r0
 65c:	cd b7       	in	r28, 0x3d	; 61
 65e:	de b7       	in	r29, 0x3e	; 62
 660:	8a 83       	std	Y+2, r24	; 0x02
 662:	6b 83       	std	Y+3, r22	; 0x03
     	u8 Local_u8CheckPortR=ok ;
 664:	81 e0       	ldi	r24, 0x01	; 1
 666:	89 83       	std	Y+1, r24	; 0x01

		if(Copy_u8PortIdx<=DIO_u8PORTMAXIDX)
 668:	8a 81       	ldd	r24, Y+2	; 0x02
 66a:	84 30       	cpi	r24, 0x04	; 4
 66c:	70 f4       	brcc	.+28     	; 0x68a <DIO_u8WritePortVal+0x36>
		{

		*DIO_u8Ports[Copy_u8PortIdx]= Copy_u8Portval;
 66e:	8a 81       	ldd	r24, Y+2	; 0x02
 670:	88 2f       	mov	r24, r24
 672:	90 e0       	ldi	r25, 0x00	; 0
 674:	88 0f       	add	r24, r24
 676:	99 1f       	adc	r25, r25
 678:	fc 01       	movw	r30, r24
 67a:	ec 59       	subi	r30, 0x9C	; 156
 67c:	ff 4f       	sbci	r31, 0xFF	; 255
 67e:	01 90       	ld	r0, Z+
 680:	f0 81       	ld	r31, Z
 682:	e0 2d       	mov	r30, r0
 684:	8b 81       	ldd	r24, Y+3	; 0x03
 686:	80 83       	st	Z, r24
 688:	01 c0       	rjmp	.+2      	; 0x68c <DIO_u8WritePortVal+0x38>
		}
		else
		{
			Local_u8CheckPortR=error ;
 68a:	19 82       	std	Y+1, r1	; 0x01
		}

		return Local_u8CheckPortR ;
 68c:	89 81       	ldd	r24, Y+1	; 0x01
}
 68e:	0f 90       	pop	r0
 690:	0f 90       	pop	r0
 692:	0f 90       	pop	r0
 694:	cf 91       	pop	r28
 696:	df 91       	pop	r29
 698:	08 95       	ret

0000069a <DIO_u8WritePinDir>:

extern u8 DIO_u8WritePinDir(u8 Copy_u8PinIdx,u8 Copy_u8PinDir)
{
 69a:	df 93       	push	r29
 69c:	cf 93       	push	r28
 69e:	00 d0       	rcall	.+0      	; 0x6a0 <DIO_u8WritePinDir+0x6>
 6a0:	00 d0       	rcall	.+0      	; 0x6a2 <DIO_u8WritePinDir+0x8>
 6a2:	0f 92       	push	r0
 6a4:	cd b7       	in	r28, 0x3d	; 61
 6a6:	de b7       	in	r29, 0x3e	; 62
 6a8:	8c 83       	std	Y+4, r24	; 0x04
 6aa:	6d 83       	std	Y+5, r22	; 0x05
	     u8 Local_u8CheckPinState=ok ;
 6ac:	81 e0       	ldi	r24, 0x01	; 1
 6ae:	8b 83       	std	Y+3, r24	; 0x03
	     u8 local_u8CheckPinPlace=Copy_u8PinIdx/PINNUMS ;
 6b0:	8c 81       	ldd	r24, Y+4	; 0x04
 6b2:	86 95       	lsr	r24
 6b4:	86 95       	lsr	r24
 6b6:	86 95       	lsr	r24
 6b8:	8a 83       	std	Y+2, r24	; 0x02
		 u8 local_u8MapPin=Copy_u8PinIdx%PINNUMS ;
 6ba:	8c 81       	ldd	r24, Y+4	; 0x04
 6bc:	87 70       	andi	r24, 0x07	; 7
 6be:	89 83       	std	Y+1, r24	; 0x01

		    if(Copy_u8PinIdx>DIO_u8PINMAXIDX)
 6c0:	8c 81       	ldd	r24, Y+4	; 0x04
 6c2:	80 32       	cpi	r24, 0x20	; 32
 6c4:	10 f0       	brcs	.+4      	; 0x6ca <DIO_u8WritePinDir+0x30>
		    {
		    	 Local_u8CheckPinState=error ;
 6c6:	1b 82       	std	Y+3, r1	; 0x03
 6c8:	33 c0       	rjmp	.+102    	; 0x730 <DIO_u8WritePinDir+0x96>
		    }
		    else
		    {
		    	assign_bit(* DIO_u8Ddrs[local_u8CheckPinPlace],local_u8MapPin,Copy_u8PinDir);
 6ca:	8a 81       	ldd	r24, Y+2	; 0x02
 6cc:	88 2f       	mov	r24, r24
 6ce:	90 e0       	ldi	r25, 0x00	; 0
 6d0:	88 0f       	add	r24, r24
 6d2:	99 1f       	adc	r25, r25
 6d4:	fc 01       	movw	r30, r24
 6d6:	e4 59       	subi	r30, 0x94	; 148
 6d8:	ff 4f       	sbci	r31, 0xFF	; 255
 6da:	a0 81       	ld	r26, Z
 6dc:	b1 81       	ldd	r27, Z+1	; 0x01
 6de:	89 81       	ldd	r24, Y+1	; 0x01
 6e0:	28 2f       	mov	r18, r24
 6e2:	30 e0       	ldi	r19, 0x00	; 0
 6e4:	81 e0       	ldi	r24, 0x01	; 1
 6e6:	90 e0       	ldi	r25, 0x00	; 0
 6e8:	02 c0       	rjmp	.+4      	; 0x6ee <DIO_u8WritePinDir+0x54>
 6ea:	88 0f       	add	r24, r24
 6ec:	99 1f       	adc	r25, r25
 6ee:	2a 95       	dec	r18
 6f0:	e2 f7       	brpl	.-8      	; 0x6ea <DIO_u8WritePinDir+0x50>
 6f2:	28 2f       	mov	r18, r24
 6f4:	20 95       	com	r18
 6f6:	8a 81       	ldd	r24, Y+2	; 0x02
 6f8:	88 2f       	mov	r24, r24
 6fa:	90 e0       	ldi	r25, 0x00	; 0
 6fc:	88 0f       	add	r24, r24
 6fe:	99 1f       	adc	r25, r25
 700:	fc 01       	movw	r30, r24
 702:	e4 59       	subi	r30, 0x94	; 148
 704:	ff 4f       	sbci	r31, 0xFF	; 255
 706:	01 90       	ld	r0, Z+
 708:	f0 81       	ld	r31, Z
 70a:	e0 2d       	mov	r30, r0
 70c:	80 81       	ld	r24, Z
 70e:	42 2f       	mov	r20, r18
 710:	48 23       	and	r20, r24
 712:	8d 81       	ldd	r24, Y+5	; 0x05
 714:	28 2f       	mov	r18, r24
 716:	30 e0       	ldi	r19, 0x00	; 0
 718:	89 81       	ldd	r24, Y+1	; 0x01
 71a:	88 2f       	mov	r24, r24
 71c:	90 e0       	ldi	r25, 0x00	; 0
 71e:	b9 01       	movw	r22, r18
 720:	02 c0       	rjmp	.+4      	; 0x726 <DIO_u8WritePinDir+0x8c>
 722:	66 0f       	add	r22, r22
 724:	77 1f       	adc	r23, r23
 726:	8a 95       	dec	r24
 728:	e2 f7       	brpl	.-8      	; 0x722 <DIO_u8WritePinDir+0x88>
 72a:	cb 01       	movw	r24, r22
 72c:	84 2b       	or	r24, r20
 72e:	8c 93       	st	X, r24
		    }

	     return  Local_u8CheckPinState ;
 730:	8b 81       	ldd	r24, Y+3	; 0x03
}
 732:	0f 90       	pop	r0
 734:	0f 90       	pop	r0
 736:	0f 90       	pop	r0
 738:	0f 90       	pop	r0
 73a:	0f 90       	pop	r0
 73c:	cf 91       	pop	r28
 73e:	df 91       	pop	r29
 740:	08 95       	ret

00000742 <DIO_u8WritePortDir>:

extern u8 DIO_u8WritePortDir(u8 Copy_u8PortIdx,u8 Copy_u8PortDir)
{
 742:	df 93       	push	r29
 744:	cf 93       	push	r28
 746:	00 d0       	rcall	.+0      	; 0x748 <DIO_u8WritePortDir+0x6>
 748:	0f 92       	push	r0
 74a:	cd b7       	in	r28, 0x3d	; 61
 74c:	de b7       	in	r29, 0x3e	; 62
 74e:	8a 83       	std	Y+2, r24	; 0x02
 750:	6b 83       	std	Y+3, r22	; 0x03

	u8 Local_u8CheckPortR=ok ;
 752:	81 e0       	ldi	r24, 0x01	; 1
 754:	89 83       	std	Y+1, r24	; 0x01

			if(Copy_u8PortIdx<=DIO_u8PORTMAXIDX)
 756:	8a 81       	ldd	r24, Y+2	; 0x02
 758:	84 30       	cpi	r24, 0x04	; 4
 75a:	70 f4       	brcc	.+28     	; 0x778 <DIO_u8WritePortDir+0x36>
			{

			*DIO_u8Ddrs[Copy_u8PortIdx]= Copy_u8PortDir;
 75c:	8a 81       	ldd	r24, Y+2	; 0x02
 75e:	88 2f       	mov	r24, r24
 760:	90 e0       	ldi	r25, 0x00	; 0
 762:	88 0f       	add	r24, r24
 764:	99 1f       	adc	r25, r25
 766:	fc 01       	movw	r30, r24
 768:	e4 59       	subi	r30, 0x94	; 148
 76a:	ff 4f       	sbci	r31, 0xFF	; 255
 76c:	01 90       	ld	r0, Z+
 76e:	f0 81       	ld	r31, Z
 770:	e0 2d       	mov	r30, r0
 772:	8b 81       	ldd	r24, Y+3	; 0x03
 774:	80 83       	st	Z, r24
 776:	01 c0       	rjmp	.+2      	; 0x77a <DIO_u8WritePortDir+0x38>
			}
			else
			{
				Local_u8CheckPortR=error ;
 778:	19 82       	std	Y+1, r1	; 0x01
			}

			return Local_u8CheckPortR ;
 77a:	89 81       	ldd	r24, Y+1	; 0x01
}
 77c:	0f 90       	pop	r0
 77e:	0f 90       	pop	r0
 780:	0f 90       	pop	r0
 782:	cf 91       	pop	r28
 784:	df 91       	pop	r29
 786:	08 95       	ret

00000788 <DIO_u8ReadPinDir>:

extern u8 DIO_u8ReadPinDir(u8 Copy_u8PinIdx,u8 * Copy_u8PtrToDir)
{
 788:	df 93       	push	r29
 78a:	cf 93       	push	r28
 78c:	00 d0       	rcall	.+0      	; 0x78e <DIO_u8ReadPinDir+0x6>
 78e:	00 d0       	rcall	.+0      	; 0x790 <DIO_u8ReadPinDir+0x8>
 790:	00 d0       	rcall	.+0      	; 0x792 <DIO_u8ReadPinDir+0xa>
 792:	cd b7       	in	r28, 0x3d	; 61
 794:	de b7       	in	r29, 0x3e	; 62
 796:	8c 83       	std	Y+4, r24	; 0x04
 798:	7e 83       	std	Y+6, r23	; 0x06
 79a:	6d 83       	std	Y+5, r22	; 0x05
	 u8 Local_u8CheckPinState=ok ;
 79c:	81 e0       	ldi	r24, 0x01	; 1
 79e:	8b 83       	std	Y+3, r24	; 0x03
	 u8 local_u8CheckPinPlace=Copy_u8PinIdx/PINNUMS;
 7a0:	8c 81       	ldd	r24, Y+4	; 0x04
 7a2:	86 95       	lsr	r24
 7a4:	86 95       	lsr	r24
 7a6:	86 95       	lsr	r24
 7a8:	8a 83       	std	Y+2, r24	; 0x02
	 u8 local_u8MapPin=Copy_u8PinIdx%PINNUMS ;
 7aa:	8c 81       	ldd	r24, Y+4	; 0x04
 7ac:	87 70       	andi	r24, 0x07	; 7
 7ae:	89 83       	std	Y+1, r24	; 0x01

	    if(Copy_u8PinIdx>DIO_u8PINMAXIDX)
 7b0:	8c 81       	ldd	r24, Y+4	; 0x04
 7b2:	80 32       	cpi	r24, 0x20	; 32
 7b4:	10 f0       	brcs	.+4      	; 0x7ba <DIO_u8ReadPinDir+0x32>
	    {
	    	 Local_u8CheckPinState=error ;
 7b6:	1b 82       	std	Y+3, r1	; 0x03
 7b8:	28 c0       	rjmp	.+80     	; 0x80a <DIO_u8ReadPinDir+0x82>
	    }
	    else
	    {
	    	* Copy_u8PtrToDir=get_bit(*DIO_u8Ddrs[local_u8CheckPinPlace],local_u8MapPin);
 7ba:	8a 81       	ldd	r24, Y+2	; 0x02
 7bc:	88 2f       	mov	r24, r24
 7be:	90 e0       	ldi	r25, 0x00	; 0
 7c0:	88 0f       	add	r24, r24
 7c2:	99 1f       	adc	r25, r25
 7c4:	fc 01       	movw	r30, r24
 7c6:	e4 59       	subi	r30, 0x94	; 148
 7c8:	ff 4f       	sbci	r31, 0xFF	; 255
 7ca:	01 90       	ld	r0, Z+
 7cc:	f0 81       	ld	r31, Z
 7ce:	e0 2d       	mov	r30, r0
 7d0:	80 81       	ld	r24, Z
 7d2:	48 2f       	mov	r20, r24
 7d4:	50 e0       	ldi	r21, 0x00	; 0
 7d6:	89 81       	ldd	r24, Y+1	; 0x01
 7d8:	28 2f       	mov	r18, r24
 7da:	30 e0       	ldi	r19, 0x00	; 0
 7dc:	81 e0       	ldi	r24, 0x01	; 1
 7de:	90 e0       	ldi	r25, 0x00	; 0
 7e0:	02 c0       	rjmp	.+4      	; 0x7e6 <DIO_u8ReadPinDir+0x5e>
 7e2:	88 0f       	add	r24, r24
 7e4:	99 1f       	adc	r25, r25
 7e6:	2a 95       	dec	r18
 7e8:	e2 f7       	brpl	.-8      	; 0x7e2 <DIO_u8ReadPinDir+0x5a>
 7ea:	9a 01       	movw	r18, r20
 7ec:	28 23       	and	r18, r24
 7ee:	39 23       	and	r19, r25
 7f0:	89 81       	ldd	r24, Y+1	; 0x01
 7f2:	88 2f       	mov	r24, r24
 7f4:	90 e0       	ldi	r25, 0x00	; 0
 7f6:	a9 01       	movw	r20, r18
 7f8:	02 c0       	rjmp	.+4      	; 0x7fe <DIO_u8ReadPinDir+0x76>
 7fa:	55 95       	asr	r21
 7fc:	47 95       	ror	r20
 7fe:	8a 95       	dec	r24
 800:	e2 f7       	brpl	.-8      	; 0x7fa <DIO_u8ReadPinDir+0x72>
 802:	ca 01       	movw	r24, r20
 804:	ed 81       	ldd	r30, Y+5	; 0x05
 806:	fe 81       	ldd	r31, Y+6	; 0x06
 808:	80 83       	st	Z, r24
	    }
	return  Local_u8CheckPinState ;
 80a:	8b 81       	ldd	r24, Y+3	; 0x03
}
 80c:	26 96       	adiw	r28, 0x06	; 6
 80e:	0f b6       	in	r0, 0x3f	; 63
 810:	f8 94       	cli
 812:	de bf       	out	0x3e, r29	; 62
 814:	0f be       	out	0x3f, r0	; 63
 816:	cd bf       	out	0x3d, r28	; 61
 818:	cf 91       	pop	r28
 81a:	df 91       	pop	r29
 81c:	08 95       	ret

0000081e <DIO_u8ReadPortDir>:

extern u8 DIO_u8ReadPortDir(u8 Copy_u8PortIdx,u8 *Copy_u8PtrToDir)
{
 81e:	df 93       	push	r29
 820:	cf 93       	push	r28
 822:	00 d0       	rcall	.+0      	; 0x824 <DIO_u8ReadPortDir+0x6>
 824:	00 d0       	rcall	.+0      	; 0x826 <DIO_u8ReadPortDir+0x8>
 826:	cd b7       	in	r28, 0x3d	; 61
 828:	de b7       	in	r29, 0x3e	; 62
 82a:	8a 83       	std	Y+2, r24	; 0x02
 82c:	7c 83       	std	Y+4, r23	; 0x04
 82e:	6b 83       	std	Y+3, r22	; 0x03
	u8 Local_u8CheckPortR=ok ;
 830:	81 e0       	ldi	r24, 0x01	; 1
 832:	89 83       	std	Y+1, r24	; 0x01

		if(Copy_u8PortIdx<=DIO_u8PORTMAXIDX)
 834:	8a 81       	ldd	r24, Y+2	; 0x02
 836:	84 30       	cpi	r24, 0x04	; 4
 838:	80 f4       	brcc	.+32     	; 0x85a <DIO_u8ReadPortDir+0x3c>
		{

		* Copy_u8PtrToDir=*DIO_u8Pins[Copy_u8PortIdx] ;
 83a:	8a 81       	ldd	r24, Y+2	; 0x02
 83c:	88 2f       	mov	r24, r24
 83e:	90 e0       	ldi	r25, 0x00	; 0
 840:	88 0f       	add	r24, r24
 842:	99 1f       	adc	r25, r25
 844:	fc 01       	movw	r30, r24
 846:	ec 58       	subi	r30, 0x8C	; 140
 848:	ff 4f       	sbci	r31, 0xFF	; 255
 84a:	01 90       	ld	r0, Z+
 84c:	f0 81       	ld	r31, Z
 84e:	e0 2d       	mov	r30, r0
 850:	80 81       	ld	r24, Z
 852:	eb 81       	ldd	r30, Y+3	; 0x03
 854:	fc 81       	ldd	r31, Y+4	; 0x04
 856:	80 83       	st	Z, r24
 858:	01 c0       	rjmp	.+2      	; 0x85c <DIO_u8ReadPortDir+0x3e>
		}
		else
		{
			Local_u8CheckPortR=error ;
 85a:	19 82       	std	Y+1, r1	; 0x01
		}

		return Local_u8CheckPortR ;
 85c:	89 81       	ldd	r24, Y+1	; 0x01
}
 85e:	0f 90       	pop	r0
 860:	0f 90       	pop	r0
 862:	0f 90       	pop	r0
 864:	0f 90       	pop	r0
 866:	cf 91       	pop	r28
 868:	df 91       	pop	r29
 86a:	08 95       	ret

0000086c <TIM0_voidInit>:
u32 TIM0_CMCOUNT=TIM0_u8LOW;
u32 TIM0_u8TIME_OVFLW ;
u32 TIM0_u8TIME_OCOMP ;
u8 TIM0_u8TimeFlag =TIM0_u8LOW ;
void TIM0_voidInit(void)
{
 86c:	df 93       	push	r29
 86e:	cf 93       	push	r28
 870:	cd b7       	in	r28, 0x3d	; 61
 872:	de b7       	in	r29, 0x3e	; 62
	TCCR0|=TIM0_u8TCCR0INIT;
 874:	a3 e5       	ldi	r26, 0x53	; 83
 876:	b0 e0       	ldi	r27, 0x00	; 0
 878:	e3 e5       	ldi	r30, 0x53	; 83
 87a:	f0 e0       	ldi	r31, 0x00	; 0
 87c:	80 81       	ld	r24, Z
 87e:	83 60       	ori	r24, 0x03	; 3
 880:	8c 93       	st	X, r24
	TIMSK|=TIM0_u8TIMSKINIT;
 882:	a9 e5       	ldi	r26, 0x59	; 89
 884:	b0 e0       	ldi	r27, 0x00	; 0
 886:	e9 e5       	ldi	r30, 0x59	; 89
 888:	f0 e0       	ldi	r31, 0x00	; 0
 88a:	80 81       	ld	r24, Z
 88c:	81 60       	ori	r24, 0x01	; 1
 88e:	8c 93       	st	X, r24

	TIM0_u8TIME_OVFLW = ((256*TIM0_u8PRESCLER)/FCPU) ;
 890:	84 e0       	ldi	r24, 0x04	; 4
 892:	90 e0       	ldi	r25, 0x00	; 0
 894:	90 93 82 00 	sts	0x0082, r25
 898:	80 93 81 00 	sts	0x0081, r24
	 TIM0_u8TIME_OCOMP = ((OCR0*TIM0_u8PRESCLER)/FCPU);
 89c:	ec e5       	ldi	r30, 0x5C	; 92
 89e:	f0 e0       	ldi	r31, 0x00	; 0
 8a0:	80 81       	ld	r24, Z
 8a2:	88 2f       	mov	r24, r24
 8a4:	90 e0       	ldi	r25, 0x00	; 0
 8a6:	00 24       	eor	r0, r0
 8a8:	96 95       	lsr	r25
 8aa:	87 95       	ror	r24
 8ac:	07 94       	ror	r0
 8ae:	96 95       	lsr	r25
 8b0:	87 95       	ror	r24
 8b2:	07 94       	ror	r0
 8b4:	98 2f       	mov	r25, r24
 8b6:	80 2d       	mov	r24, r0
 8b8:	20 ea       	ldi	r18, 0xA0	; 160
 8ba:	3f e0       	ldi	r19, 0x0F	; 15
 8bc:	b9 01       	movw	r22, r18
 8be:	0e 94 4a 05 	call	0xa94	; 0xa94 <__divmodhi4>
 8c2:	cb 01       	movw	r24, r22
 8c4:	90 93 84 00 	sts	0x0084, r25
 8c8:	80 93 83 00 	sts	0x0083, r24
}
 8cc:	cf 91       	pop	r28
 8ce:	df 91       	pop	r29
 8d0:	08 95       	ret

000008d2 <TIM0_u8SetTime>:


void TIM0_u8SetTime(u32 Copy_u8TimVal)
{
 8d2:	df 93       	push	r29
 8d4:	cf 93       	push	r28
 8d6:	cd b7       	in	r28, 0x3d	; 61
 8d8:	de b7       	in	r29, 0x3e	; 62
 8da:	2e 97       	sbiw	r28, 0x0e	; 14
 8dc:	0f b6       	in	r0, 0x3f	; 63
 8de:	f8 94       	cli
 8e0:	de bf       	out	0x3e, r29	; 62
 8e2:	0f be       	out	0x3f, r0	; 63
 8e4:	cd bf       	out	0x3d, r28	; 61
 8e6:	9e 87       	std	Y+14, r25	; 0x0e
 8e8:	8d 87       	std	Y+13, r24	; 0x0d

	u32 Local_u8Time;
u8 str[10];
#if(TIM0_u8WFG==TIM0_u8NRMALMODE)
   Local_u8Time= (TIM0_OFCOUNT *TIM0_u8TIME_OVFLW ) ;
 8ea:	20 91 7c 00 	lds	r18, 0x007C
 8ee:	30 91 7d 00 	lds	r19, 0x007D
 8f2:	80 91 81 00 	lds	r24, 0x0081
 8f6:	90 91 82 00 	lds	r25, 0x0082
 8fa:	ac 01       	movw	r20, r24
 8fc:	24 9f       	mul	r18, r20
 8fe:	c0 01       	movw	r24, r0
 900:	25 9f       	mul	r18, r21
 902:	90 0d       	add	r25, r0
 904:	34 9f       	mul	r19, r20
 906:	90 0d       	add	r25, r0
 908:	11 24       	eor	r1, r1
 90a:	9a 83       	std	Y+2, r25	; 0x02
 90c:	89 83       	std	Y+1, r24	; 0x01

   if(Local_u8Time>Copy_u8TimVal)
 90e:	29 81       	ldd	r18, Y+1	; 0x01
 910:	3a 81       	ldd	r19, Y+2	; 0x02
 912:	8d 85       	ldd	r24, Y+13	; 0x0d
 914:	9e 85       	ldd	r25, Y+14	; 0x0e
 916:	82 17       	cp	r24, r18
 918:	93 07       	cpc	r25, r19
 91a:	18 f4       	brcc	.+6      	; 0x922 <TIM0_u8SetTime+0x50>
   {
	   TIM0_u8TimeFlag=TIM0_u8HIGH ;
 91c:	81 e0       	ldi	r24, 0x01	; 1
 91e:	80 93 80 00 	sts	0x0080, r24
     {

     }
#endif
return  ;
}
 922:	2e 96       	adiw	r28, 0x0e	; 14
 924:	0f b6       	in	r0, 0x3f	; 63
 926:	f8 94       	cli
 928:	de bf       	out	0x3e, r29	; 62
 92a:	0f be       	out	0x3f, r0	; 63
 92c:	cd bf       	out	0x3d, r28	; 61
 92e:	cf 91       	pop	r28
 930:	df 91       	pop	r29
 932:	08 95       	ret

00000934 <TIM0_voiResetTimer>:
void TIM0_voiResetTimer(void)
{
 934:	df 93       	push	r29
 936:	cf 93       	push	r28
 938:	cd b7       	in	r28, 0x3d	; 61
 93a:	de b7       	in	r29, 0x3e	; 62
	TIM0_OFCOUNT=0 ;
 93c:	10 92 7d 00 	sts	0x007D, r1
 940:	10 92 7c 00 	sts	0x007C, r1
	TIM0_CMCOUNT=0;
 944:	10 92 7f 00 	sts	0x007F, r1
 948:	10 92 7e 00 	sts	0x007E, r1
}
 94c:	cf 91       	pop	r28
 94e:	df 91       	pop	r29
 950:	08 95       	ret

00000952 <TIM0_voiResetTimFlg>:
void TIM0_voiResetTimFlg(void)
{
 952:	df 93       	push	r29
 954:	cf 93       	push	r28
 956:	cd b7       	in	r28, 0x3d	; 61
 958:	de b7       	in	r29, 0x3e	; 62
	TIM0_u8TimeFlag=TIM0_u8LOW ;
 95a:	10 92 80 00 	sts	0x0080, r1
}
 95e:	cf 91       	pop	r28
 960:	df 91       	pop	r29
 962:	08 95       	ret

00000964 <TIM0_u8TimerEnabl>:
void TIM0_u8TimerEnabl(void)
{
 964:	df 93       	push	r29
 966:	cf 93       	push	r28
 968:	cd b7       	in	r28, 0x3d	; 61
 96a:	de b7       	in	r29, 0x3e	; 62
	TCCR0|=TIM0_u8TCCR0INIT;
 96c:	a3 e5       	ldi	r26, 0x53	; 83
 96e:	b0 e0       	ldi	r27, 0x00	; 0
 970:	e3 e5       	ldi	r30, 0x53	; 83
 972:	f0 e0       	ldi	r31, 0x00	; 0
 974:	80 81       	ld	r24, Z
 976:	83 60       	ori	r24, 0x03	; 3
 978:	8c 93       	st	X, r24
}
 97a:	cf 91       	pop	r28
 97c:	df 91       	pop	r29
 97e:	08 95       	ret

00000980 <TIM0_u8TimerDisabl>:
void TIM0_u8TimerDisabl(void)
{
 980:	df 93       	push	r29
 982:	cf 93       	push	r28
 984:	cd b7       	in	r28, 0x3d	; 61
 986:	de b7       	in	r29, 0x3e	; 62
	TCCR0 &=TIM0_u8STOPTIMER;
 988:	a3 e5       	ldi	r26, 0x53	; 83
 98a:	b0 e0       	ldi	r27, 0x00	; 0
 98c:	e3 e5       	ldi	r30, 0x53	; 83
 98e:	f0 e0       	ldi	r31, 0x00	; 0
 990:	80 81       	ld	r24, Z
 992:	88 7f       	andi	r24, 0xF8	; 248
 994:	8c 93       	st	X, r24
}
 996:	cf 91       	pop	r28
 998:	df 91       	pop	r29
 99a:	08 95       	ret

0000099c <TIM0_u8GetTimFlg>:

u8 TIM0_u8GetTimFlg(void)
{
 99c:	df 93       	push	r29
 99e:	cf 93       	push	r28
 9a0:	cd b7       	in	r28, 0x3d	; 61
 9a2:	de b7       	in	r29, 0x3e	; 62
	return TIM0_u8TimeFlag;
 9a4:	80 91 80 00 	lds	r24, 0x0080
}
 9a8:	cf 91       	pop	r28
 9aa:	df 91       	pop	r29
 9ac:	08 95       	ret

000009ae <TIM0_voidSetComp>:
void TIM0_voidSetComp(u8 Copy_u8CompVal)
{
 9ae:	df 93       	push	r29
 9b0:	cf 93       	push	r28
 9b2:	0f 92       	push	r0
 9b4:	cd b7       	in	r28, 0x3d	; 61
 9b6:	de b7       	in	r29, 0x3e	; 62
 9b8:	89 83       	std	Y+1, r24	; 0x01
	OCR0=Copy_u8CompVal;
 9ba:	ec e5       	ldi	r30, 0x5C	; 92
 9bc:	f0 e0       	ldi	r31, 0x00	; 0
 9be:	89 81       	ldd	r24, Y+1	; 0x01
 9c0:	80 83       	st	Z, r24
}
 9c2:	0f 90       	pop	r0
 9c4:	cf 91       	pop	r28
 9c6:	df 91       	pop	r29
 9c8:	08 95       	ret

000009ca <__vector_11>:

ISR(__vector_11)
{
 9ca:	1f 92       	push	r1
 9cc:	0f 92       	push	r0
 9ce:	0f b6       	in	r0, 0x3f	; 63
 9d0:	0f 92       	push	r0
 9d2:	11 24       	eor	r1, r1
 9d4:	8f 93       	push	r24
 9d6:	9f 93       	push	r25
 9d8:	df 93       	push	r29
 9da:	cf 93       	push	r28
 9dc:	cd b7       	in	r28, 0x3d	; 61
 9de:	de b7       	in	r29, 0x3e	; 62
	 TIM0_OFCOUNT++ ;
 9e0:	80 91 7c 00 	lds	r24, 0x007C
 9e4:	90 91 7d 00 	lds	r25, 0x007D
 9e8:	01 96       	adiw	r24, 0x01	; 1
 9ea:	90 93 7d 00 	sts	0x007D, r25
 9ee:	80 93 7c 00 	sts	0x007C, r24
}
 9f2:	cf 91       	pop	r28
 9f4:	df 91       	pop	r29
 9f6:	9f 91       	pop	r25
 9f8:	8f 91       	pop	r24
 9fa:	0f 90       	pop	r0
 9fc:	0f be       	out	0x3f, r0	; 63
 9fe:	0f 90       	pop	r0
 a00:	1f 90       	pop	r1
 a02:	18 95       	reti

00000a04 <__vector_15>:
ISR(__vector_15)
{
 a04:	1f 92       	push	r1
 a06:	0f 92       	push	r0
 a08:	0f b6       	in	r0, 0x3f	; 63
 a0a:	0f 92       	push	r0
 a0c:	11 24       	eor	r1, r1
 a0e:	8f 93       	push	r24
 a10:	9f 93       	push	r25
 a12:	df 93       	push	r29
 a14:	cf 93       	push	r28
 a16:	cd b7       	in	r28, 0x3d	; 61
 a18:	de b7       	in	r29, 0x3e	; 62
	 TIM0_CMCOUNT++ ;
 a1a:	80 91 7e 00 	lds	r24, 0x007E
 a1e:	90 91 7f 00 	lds	r25, 0x007F
 a22:	01 96       	adiw	r24, 0x01	; 1
 a24:	90 93 7f 00 	sts	0x007F, r25
 a28:	80 93 7e 00 	sts	0x007E, r24
}
 a2c:	cf 91       	pop	r28
 a2e:	df 91       	pop	r29
 a30:	9f 91       	pop	r25
 a32:	8f 91       	pop	r24
 a34:	0f 90       	pop	r0
 a36:	0f be       	out	0x3f, r0	; 63
 a38:	0f 90       	pop	r0
 a3a:	1f 90       	pop	r1
 a3c:	18 95       	reti

00000a3e <main>:
#include "GLOB_INT.h"



void main (void)
{
 a3e:	df 93       	push	r29
 a40:	cf 93       	push	r28
 a42:	00 d0       	rcall	.+0      	; 0xa44 <main+0x6>
 a44:	0f 92       	push	r0
 a46:	cd b7       	in	r28, 0x3d	; 61
 a48:	de b7       	in	r29, 0x3e	; 62
	u16 ADC_read ;
	u8 tog ;
   DIO_voidInit();
 a4a:	0e 94 13 02 	call	0x426	; 0x426 <DIO_voidInit>
   ADC_voidInit();
 a4e:	0e 94 49 00 	call	0x92	; 0x92 <ADC_voidInit>
   TIM0_voidInit();
 a52:	0e 94 36 04 	call	0x86c	; 0x86c <TIM0_voidInit>
   ADC_voidEnable();
 a56:	0e 94 63 00 	call	0xc6	; 0xc6 <ADC_voidEnable>
   SEI();
 a5a:	78 94       	sei

   while(1)
   {
	   ADC_u8ReadCh_SSht(0,&ADC_read);
 a5c:	9e 01       	movw	r18, r28
 a5e:	2e 5f       	subi	r18, 0xFE	; 254
 a60:	3f 4f       	sbci	r19, 0xFF	; 255
 a62:	80 e0       	ldi	r24, 0x00	; 0
 a64:	b9 01       	movw	r22, r18
 a66:	0e 94 7f 00 	call	0xfe	; 0xfe <ADC_u8ReadCh_SSht>
	   TIM0_u8SetTime(ADC_read);
 a6a:	8a 81       	ldd	r24, Y+2	; 0x02
 a6c:	9b 81       	ldd	r25, Y+3	; 0x03
 a6e:	0e 94 69 04 	call	0x8d2	; 0x8d2 <TIM0_u8SetTime>
	   if(TIM0_u8GetTimFlg()==1)
 a72:	0e 94 ce 04 	call	0x99c	; 0x99c <TIM0_u8GetTimFlg>
 a76:	81 30       	cpi	r24, 0x01	; 1
 a78:	89 f7       	brne	.-30     	; 0xa5c <main+0x1e>
	   {
		   tog^=1;
 a7a:	89 81       	ldd	r24, Y+1	; 0x01
 a7c:	91 e0       	ldi	r25, 0x01	; 1
 a7e:	89 27       	eor	r24, r25
 a80:	89 83       	std	Y+1, r24	; 0x01
          DIO_u8WritePinVal(28,tog);
 a82:	8c e1       	ldi	r24, 0x1C	; 28
 a84:	69 81       	ldd	r22, Y+1	; 0x01
 a86:	0e 94 af 02 	call	0x55e	; 0x55e <DIO_u8WritePinVal>
          TIM0_voiResetTimer();
 a8a:	0e 94 9a 04 	call	0x934	; 0x934 <TIM0_voiResetTimer>
          TIM0_voiResetTimFlg();
 a8e:	0e 94 a9 04 	call	0x952	; 0x952 <TIM0_voiResetTimFlg>
 a92:	e4 cf       	rjmp	.-56     	; 0xa5c <main+0x1e>

00000a94 <__divmodhi4>:
 a94:	97 fb       	bst	r25, 7
 a96:	09 2e       	mov	r0, r25
 a98:	07 26       	eor	r0, r23
 a9a:	0a d0       	rcall	.+20     	; 0xab0 <__divmodhi4_neg1>
 a9c:	77 fd       	sbrc	r23, 7
 a9e:	04 d0       	rcall	.+8      	; 0xaa8 <__divmodhi4_neg2>
 aa0:	0c d0       	rcall	.+24     	; 0xaba <__udivmodhi4>
 aa2:	06 d0       	rcall	.+12     	; 0xab0 <__divmodhi4_neg1>
 aa4:	00 20       	and	r0, r0
 aa6:	1a f4       	brpl	.+6      	; 0xaae <__divmodhi4_exit>

00000aa8 <__divmodhi4_neg2>:
 aa8:	70 95       	com	r23
 aaa:	61 95       	neg	r22
 aac:	7f 4f       	sbci	r23, 0xFF	; 255

00000aae <__divmodhi4_exit>:
 aae:	08 95       	ret

00000ab0 <__divmodhi4_neg1>:
 ab0:	f6 f7       	brtc	.-4      	; 0xaae <__divmodhi4_exit>
 ab2:	90 95       	com	r25
 ab4:	81 95       	neg	r24
 ab6:	9f 4f       	sbci	r25, 0xFF	; 255
 ab8:	08 95       	ret

00000aba <__udivmodhi4>:
 aba:	aa 1b       	sub	r26, r26
 abc:	bb 1b       	sub	r27, r27
 abe:	51 e1       	ldi	r21, 0x11	; 17
 ac0:	07 c0       	rjmp	.+14     	; 0xad0 <__udivmodhi4_ep>

00000ac2 <__udivmodhi4_loop>:
 ac2:	aa 1f       	adc	r26, r26
 ac4:	bb 1f       	adc	r27, r27
 ac6:	a6 17       	cp	r26, r22
 ac8:	b7 07       	cpc	r27, r23
 aca:	10 f0       	brcs	.+4      	; 0xad0 <__udivmodhi4_ep>
 acc:	a6 1b       	sub	r26, r22
 ace:	b7 0b       	sbc	r27, r23

00000ad0 <__udivmodhi4_ep>:
 ad0:	88 1f       	adc	r24, r24
 ad2:	99 1f       	adc	r25, r25
 ad4:	5a 95       	dec	r21
 ad6:	a9 f7       	brne	.-22     	; 0xac2 <__udivmodhi4_loop>
 ad8:	80 95       	com	r24
 ada:	90 95       	com	r25
 adc:	bc 01       	movw	r22, r24
 ade:	cd 01       	movw	r24, r26
 ae0:	08 95       	ret

00000ae2 <_exit>:
 ae2:	f8 94       	cli

00000ae4 <__stop_program>:
 ae4:	ff cf       	rjmp	.-2      	; 0xae4 <__stop_program>
